(dp0
S'inputs'
p1
(lp2
(lp3
F-0.30692523189438015
aF0.00012988961348447012
aF0.48670474478588666
aF-0.18998098108688266
aF-0.5323932804783553
aF0.1235255024114208
aa(lp4
F-0.3069315516753311
aF0.0001296829621007962
aF0.48670574789959803
aF-0.18762634545749712
aF-0.5338539355751935
aF0.12159630178109637
aa(lp5
F-0.3069281519666798
aF0.00012911213854361798
aF0.4867051865205076
aF-0.18845635340907252
aF-0.5332977239907615
aF0.12021985363286247
aa(lp6
F-0.30692500645682513
aF0.00013166869163637078
aF0.48670519863938916
aF-0.18900208260703688
aF-0.533421346351384
aF0.12122419796861195
aa(lp7
F-0.30692616652722005
aF0.0001275091550814549
aF0.48670518608903734
aF-0.18810251827228786
aF-0.5339105906693219
aF0.11880305067705299
aa(lp8
F-0.30692450642776437
aF0.0001316339231965863
aF0.48670397217167566
aF-0.1870745531010486
aF-0.5345814876796523
aF0.11778312513174338
aa(lp9
F-0.3069225372561127
aF-0.0016027697569363263
aF0.4867051024149886
aF-0.1860245136288461
aF-0.5361162483101388
aF0.11162673371141096
aa(lp10
F-0.3069119514080468
aF-0.0035606945935154504
aF0.48670574737631533
aF-0.18478570457258048
aF-0.5353082913470224
aF0.11350079333023033
aa(lp11
F-0.3069593435985694
aF-0.009268195537990853
aF0.48676778663817694
aF-0.18154948356767608
aF-0.5356150106583042
aF0.11231216847912684
aa(lp12
F-0.30679178223035947
aF-0.012864605008731643
aF0.4867968537501779
aF-0.1763027235043243
aF-0.5310283597763183
aF0.12406553872092152
aa(lp13
F-0.30674228038386236
aF-0.01907571075518046
aF0.4868538117998171
aF-0.16643822878683412
aF-0.5354503806226725
aF0.1103145153573859
aa(lp14
F-0.306763916632483
aF-0.025968225761155605
aF0.4868824605708324
aF-0.1644090253311583
aF-0.5324781657683584
aF0.11665106642660739
aa(lp15
F-0.30667130183461544
aF-0.035409527032271106
aF0.486531806581429
aF-0.15338515822481424
aF-0.533481143304658
aF0.11090717297562036
aa(lp16
F-0.3071512522237212
aF-0.04373296503033231
aF0.48376997920887477
aF-0.14679021588059593
aF-0.529785598625327
aF0.11302237562071049
aa(lp17
F-0.3074335004067703
aF-0.04980667921703702
aF0.48027980605840576
aF-0.13646063834433153
aF-0.5252093674386549
aF0.1124442249620381
aa(lp18
F-0.3084357866668019
aF-0.061437719392602334
aF0.47122130722508215
aF-0.1270847612196213
aF-0.5202072131608995
aF0.10963614771869468
aa(lp19
F-0.30896178435560273
aF-0.06446702090259127
aF0.4683767361455353
aF-0.12028975174186685
aF-0.5107409295884998
aF0.11068237822807836
aa(lp20
F-0.31108415186907873
aF-0.07623873658651034
aF0.4560399526791536
aF-0.13448701224230147
aF-0.5129521389631875
aF0.2695278158680754
aa(lp21
F-0.31227244766254786
aF-0.08209195453693975
aF0.44912524656670993
aF-0.10348595532493132
aF-0.4890262727851925
aF0.10691689762418766
aa(lp22
F-0.3145412628136129
aF-0.09090216895292758
aF0.43793003236840344
aF-0.0980918125859348
aF-0.47613208644788374
aF0.10824688554170203
aa(lp23
F-0.31721904838356535
aF-0.09964805929895967
aF0.42607431531561
aF-0.05564607577442635
aF-0.4723254709031686
aF0.2908240702585765
aa(lp24
F-0.3204657141147175
aF-0.11098551639264057
aF0.4094832895867589
aF-0.016104225957485174
aF-0.4687045341077265
aF0.011486297510004961
aa(lp25
F-0.32218142996688726
aF-0.11924209935770888
aF0.3965977836788333
aF-0.01821901428405004
aF-0.4534053008634744
aF-0.005120436408050821
aa(lp26
F-0.32402315929041237
aF-0.1248903645593198
aF0.3878584618729498
aF-0.0209850192734079
aF-0.43773570097701286
aF-0.0239789123220413
aa(lp27
F-0.3261710535015
aF-0.13548202790938485
aF0.3704024895552592
aF-0.01839578944961595
aF-0.4283515400144332
aF-0.02408032829876139
aa(lp28
F-0.32700612088684383
aF-0.14056210723347928
aF0.3615807123981887
aF-0.017077708869546515
aF-0.41194933763387276
aF-0.03647431744567298
aa(lp29
F-0.3284346749578423
aF-0.14788418628297526
aF0.3458439967675255
aF-0.015216124664574115
aF-0.3976457146038257
aF-0.04055547761776657
aa(lp30
F-0.3291496080936199
aF-0.15127851569971276
aF0.3355465517786346
aF-0.01436850436493986
aF-0.3835601459180664
aF-0.048083316549342614
aa(lp31
F-0.32997497513230223
aF-0.1545276765081188
aF0.3225423315962677
aF-0.018216579695625068
aF-0.3683827599363513
aF-0.059029421463030696
aa(lp32
F-0.33036412312384594
aF-0.15693119286564625
aF0.30999465471274457
aF-0.014793912101787043
aF-0.35598887914354993
aF-0.058795422999696756
aa(lp33
F-0.3306214428901765
aF-0.1606107847799568
aF0.2940535519173708
aF-0.012799958037736814
aF-0.3434857752835333
aF-0.058268032565391925
aa(lp34
F-0.33044138977447335
aF-0.16383479408767662
aF0.2819950579510173
aF-0.015380917541370276
aF-0.32884812336838887
aF-0.06920066063079844
aa(lp35
F-0.33069329839666267
aF-0.16514043333406972
aF0.27803401046378806
aF-0.01296383522937461
aF-0.316723813634063
aF-0.07033475170007542
aa(lp36
F-0.33038905695201454
aF-0.17012551669890472
aF0.26284471432270173
aF-0.011555023141723408
aF-0.30399827906361887
aF-0.07664335308048664
aa(lp37
F-0.33009235516673885
aF-0.17271941239573044
aF0.2555984880231015
aF-0.00370407616305235
aF-0.29513867725305154
aF-0.06837878924102925
aa(lp38
F-0.32969640469944844
aF-0.17686337473599845
aF0.24492353192245114
aF-0.002344867087636704
aF-0.2833072261654321
aF-0.0737479479391201
aa(lp39
F-0.3294441302498864
aF-0.1810500073402224
aF0.23463343162802675
aF-0.0014498306299008945
aF-0.2707661754881199
aF-0.08163337255160519
aa(lp40
F-0.3288592655054229
aF-0.1849568437464516
aF0.2215315846175282
aF0.0034864029553254294
aF-0.26204963934462155
aF-0.0764375659021781
aa(lp41
F-0.32857139127561724
aF-0.18614168104870382
aF0.21221953522072365
aF0.00483618591052537
aF-0.2539497788499946
aF-0.07620697858148295
aa(lp42
F-0.3281039823633954
aF-0.18627918912901653
aF0.20616802723739905
aF0.00982944545518305
aF-0.2477391962443123
aF-0.06685632652829132
aa(lp43
F-0.32733334212722587
aF-0.18542625862410322
aF0.19456210279144254
aF0.009167804493195875
aF-0.23964733928039922
aF-0.06762542647778758
aa(lp44
F-0.32693612813469536
aF-0.18427642222066
aF0.18903876678626336
aF0.009679911160907495
aF-0.23403251233962863
aF-0.06423309235389141
aa(lp45
F-0.3270256018925435
aF-0.18322593327388603
aF0.1809456540889758
aF0.008175073138895539
aF-0.22570817069981158
aF-0.06621282064284584
aa(lp46
F-0.32725518776951196
aF-0.18273767463577048
aF0.1733032764812165
aF0.008626775712970991
aF-0.21938739903425797
aF-0.06385424247606308
aa(lp47
F-0.3284431681556277
aF-0.18325597224238077
aF0.16428824013390955
aF0.009754384156072438
aF-0.21271491283123561
aF-0.06197774160952396
aa(lp48
F-0.3298799695317365
aF-0.18421942932581822
aF0.15722182053941136
aF0.00898229821640939
aF-0.2047193434620817
aF-0.06319945025959073
aa(lp49
F-0.33124980346155586
aF-0.18534061761165732
aF0.15240636703283872
aF0.010569351012163608
aF-0.19819166700402735
aF-0.060980699842738906
aa(lp50
F-0.3340899394707
aF-0.18792168136844964
aF0.14422292617793395
aF0.011350841675602852
aF-0.19123237741279764
aF-0.06005862093635428
aa(lp51
F-0.3360439886871507
aF-0.1896814400762144
aF0.1400938248153164
aF0.010424578235513793
aF-0.18195275132254096
aF-0.06495790114943256
aa(lp52
F-0.33790234599375124
aF-0.19130678573987497
aF0.13627366708091002
aF0.011300675283213324
aF-0.1750344121317698
aF-0.06427774706036482
aa(lp53
F-0.3417257136909147
aF-0.19399667488192604
aF0.1307763477387966
aF0.010023023745833082
aF-0.16623403531172531
aF-0.06711594652046893
aa(lp54
F-0.34757618849184163
aF-0.19732847104045834
aF0.12380129948645124
aF0.010968308951554429
aF-0.16054846113588672
aF-0.06317208971998878
aa(lp55
F-0.351422886637439
aF-0.19849650090918966
aF0.11884213324996336
aF0.007347174078717655
aF-0.1510474630620891
aF-0.06897354970829106
aa(lp56
F-0.35342117492054714
aF-0.19846096626491264
aF0.11577271234271616
aF0.007515664609339057
aF-0.14719292874836154
aF-0.06450945714523448
aa(lp57
F-0.35645757143744383
aF-0.19804882355052159
aF0.10992375977658966
aF0.006788181219226752
aF-0.14255671618843901
aF-0.06295513570642375
aa(lp58
F-0.3575652650317943
aF-0.1981326460306567
aF0.10709573777883871
aF0.004513698665339794
aF-0.13617518053190847
aF-0.06535127108097205
aa(lp59
F-0.3590758184361381
aF-0.19736034497207436
aF0.10229501076912356
aF0.0034257183743049424
aF-0.13230126970154543
aF-0.06477341682732218
aa(lp60
F-0.3595097773934137
aF-0.19593675765010354
aF0.09925512946133871
aF0.004135905328441991
aF-0.13130684987525065
aF-0.058766700469572
aa(lp61
F-0.3599722591244498
aF-0.19430296212492015
aF0.09568879348925173
aF0.00282873348125956
aF-0.12839965707531542
aF-0.05852211294127452
aa(lp62
F-0.35983314350269957
aF-0.1932738962055725
aF0.09224213810837624
aF0.00454776893592812
aF-0.12729551697374997
aF-0.05322887913867058
aa(lp63
F-0.3594374987578614
aF-0.19302196200408037
aF0.08823698473021457
aF0.00489828117517388
aF-0.1247671927741203
aF-0.053694931187928896
aa(lp64
F-0.3589969731548007
aF-0.1933887155969409
aF0.08603129057124186
aF0.005733416301802241
aF-0.12221230742043498
aF-0.0534437335403537
aa(lp65
F-0.3576378559185626
aF-0.19465061935068959
aF0.08238609626837945
aF0.0066015807413079
aF-0.11898992382318929
aF-0.05525275687418696
aa(lp66
F-0.3571646469698195
aF-0.19570542306068703
aF0.08048172398680005
aF0.008868423698960348
aF-0.11718726784414779
aF-0.054489173025952686
aa(lp67
F-0.3570678590660172
aF-0.19636245704471852
aF0.07876576777495556
aF0.009336771618158046
aF-0.11458721964346719
aF-0.05511489043535445
aa(lp68
F-0.3579843998876766
aF-0.19707033391971357
aF0.07564039975283472
aF0.010803867525572719
aF-0.11265124648921832
aF-0.05215492034270164
aa(lp69
F-0.35936158456622486
aF-0.19754712443059733
aF0.0740982487501915
aF0.008427758150336806
aF-0.10920507254329448
aF-0.054939663866916844
aa(lp70
F-0.36205601945579324
aF-0.198321691197047
aF0.07191644567051303
aF0.005227781369614437
aF-0.10127349199556268
aF-0.05995002227697155
aa(lp71
F-0.365267961454703
aF-0.1990269028555517
aF0.06988220449864621
aF0.006630655218029635
aF-0.10047124953584319
aF-0.05403074384354012
aa(lp72
F-0.37082611664969883
aF-0.2000863493776883
aF0.06717571533628149
aF0.005421292303242842
aF-0.09679982840803836
aF-0.052247994312088375
aa(lp73
F-0.375414597936719
aF-0.20021872023559384
aF0.06531222912949092
aF0.0010023741168870837
aF-0.09077952164304426
aF-0.05620203871034324
aa(lp74
F-0.37877457855846214
aF-0.2000343817901674
aF0.06409749485116661
aF-9.048545561030075e-05
aF-0.08821915941743197
aF-0.05190651409566405
aa(lp75
F-0.38505892438792627
aF-0.2001680575347895
aF0.061930784399065734
aF-0.006258175768945384
aF-0.0801811697406749
aF-0.0583881883879005
aa(lp76
F-0.3883132246914144
aF-0.20069768976853955
aF0.06086744636407076
aF-0.0056776655466515
aF-0.07936431609268424
aF-0.0545957168024529
aa(lp77
F-0.3929177893700364
aF-0.20165825814396207
aF0.059499585811222985
aF-0.007841011313705737
aF-0.07430414076544567
aF-0.055241588160103605
aa(lp78
F-0.39823894751273853
aF-0.20335139658538193
aF0.05798092944948006
aF-0.010009417512009455
aF-0.06941215326857442
aF-0.05626776336310346
aa(lp79
F-0.4038027647422173
aF-0.20406869700899455
aF0.056531273194581094
aF-0.012053551023103015
aF-0.06508456995081846
aF-0.05614299071102358
aa(lp80
F-0.40878982351275495
aF-0.20330608575885228
aF0.05521633786678822
aF-0.0160261542597695
aF-0.060177908421530146
aF-0.057665246891497546
aa(lp81
F-0.41193788234831813
aF-0.20078637505676256
aF0.0544775615184952
aF-0.014633244274573243
aF-0.0634577139961311
aF-0.045406449809294314
aa(lp82
F-0.41639895329872345
aF-0.19357372510324827
aF0.05372601803896093
aF-0.02226843588311911
aF-0.06115576864161476
aF-0.04441739476584927
aa(lp83
F-0.41817742463374336
aF-0.18927383456493263
aF0.05454927775197021
aF-0.030815419768583485
aF-0.05449057490873532
aF-0.0547213564121527
aa(lp84
F-0.41955020951190325
aF-0.1831189091032506
aF0.05813570831283067
aF-0.025147164249019527
aF-0.05693989837226021
aF-0.05505214829634553
aa(lp85
F-0.4200603009064585
aF-0.17976755022178117
aF0.06163811911286014
aF-0.03123192703340738
aF-0.05109120338318185
aF-0.06523533059377917
aa(lp86
F-0.42015803308169475
aF-0.1759160049205599
aF0.0682519418569413
aF-0.026963666596839242
aF-0.05613623418256786
aF-0.05717010752559881
aa(lp87
F-0.4188556453482021
aF-0.1725992204883186
aF0.07969627683189973
aF-0.027190967073913663
aF-0.056645869841432495
aF-0.05721991984442254
aa(lp88
F-0.4174921813798721
aF-0.17149524208284064
aF0.08944970998259066
aF-0.027266010874388735
aF-0.05730038659850267
aF-0.057130111709673415
aa(lp89
F-0.4158571778776476
aF-0.17101996851478266
aF0.10019854434228673
aF-0.033743602099637005
aF-0.051693427789800794
aF-0.06849514904125908
aa(lp90
F-0.4143992383983069
aF-0.1704552477672689
aF0.1076839707516163
aF-0.02858957456522837
aF-0.05708689418666957
aF-0.060414381366007186
aa(lp91
F-0.41104244242704646
aF-0.16835330352203007
aF0.12342979820709211
aF-0.026141798004220007
aF-0.06022488727145203
aF-0.056373148124973405
aa(lp92
F-0.4092196134963661
aF-0.1666774855160764
aF0.1316171346847402
aF-0.02216165129036074
aF-0.06438152442613898
aF-0.04962979213079599
aa(lp93
F-0.4056046995699724
aF-0.16130284957672023
aF0.14825850898965545
aF-0.025107463299299138
aF-0.062386892791249204
aF-0.05507010639849996
aa(lp94
F-0.40426992032657955
aF-0.15733655169056776
aF0.15670735945179087
aF-0.019278478277597988
aF-0.06829568754324855
aF-0.04442202752711122
aa(lp95
F-0.40330034625592803
aF-0.14803941838179754
aF0.1719667736788406
aF-0.02024892702180303
aF-0.06842317806351228
aF-0.045656281779481445
aa(lp96
F-0.403126404333093
aF-0.1407378074501802
aF0.1820181490454108
aF-0.01711065804135492
aF-0.07170359794571268
aF-0.03989600760064649
aa(lp97
F-0.4033079697013334
aF-0.13145400442835342
aF0.19451770822603584
aF-0.01845699354208341
aF-0.07170731077863673
aF-0.04130067960043071
aa(lp98
F-0.4035978745603582
aF-0.11856223622180102
aF0.20999247044305028
aF-0.0186604523984103
aF-0.07239080232209955
aF-0.040963388967914405
aa(lp99
F-0.40508431128624994
aF-0.10731326580613786
aF0.22053160275017708
aF-0.017503369161740334
aF-0.07395653888636994
aF-0.03811043256738422
aa(lp100
F-0.40715336936158936
aF-0.09542330276202146
aF0.22842752765175844
aF-0.013365781126535858
aF-0.07725450519758631
aF-0.030250470402960028
aa(lp101
F-0.40922582789443307
aF-0.08709894440470747
aF0.232322916336785
aF-0.012978668123200143
aF-0.0778918702425756
aF-0.02876089776075319
aa(lp102
F-0.41184736933857696
aF-0.07453227087622454
aF0.23637597310535263
aF-0.012145736279506103
aF-0.07872210648479572
aF-0.02694111922768605
aa(lp103
F-0.4138582976505761
aF-0.06593345808143729
aF0.23846612843129833
aF-0.009717733081569535
aF-0.07995562939520023
aF-0.02291904978255932
aa(lp104
F-0.41679635681868904
aF-0.052967593126588025
aF0.24105743485814846
aF-0.01129879740327211
aF-0.07959034109098057
aF-0.024462858440341684
aa(lp105
F-0.4199077859420766
aF-0.03978542559241018
aF0.24349583618478363
aF-0.012390744182380509
aF-0.07944456367274821
aF-0.025548214849958395
aa(lp106
F-0.42367115654142573
aF-0.02217768551075912
aF0.2476787820737354
aF-0.012706726350430575
aF-0.07960047723359909
aF-0.025363267922319466
aa(lp107
F-0.4264209855727573
aF-0.009048111425100805
aF0.25147835523721485
aF-0.01324050870487492
aF-0.07975906159919
aF-0.025567540043806014
aa(lp108
F-0.4284189479345105
aF-0.0003371949490678372
aF0.2534639444752194
aF-0.008678318497940762
aF-0.08182801095639364
aF-0.018752604336381484
aa(lp109
F-0.43117515459737304
aF0.016777786780856212
aF0.25522053699459796
aF-0.010545148967241902
aF-0.08107786336936007
aF-0.020847181249874946
aa(lp110
F-0.43166490341262437
aF0.025134595118961982
aF0.2552496253420622
aF-0.009081245296062579
aF-0.08207357313412078
aF-0.01838976497130118
aa(lp111
F-0.4316395682432267
aF0.03753523094345649
aF0.2541511553893991
aF-0.008237427190903368
aF-0.08225498236535927
aF-0.01739813500174403
aa(lp112
F-0.43126705339917243
aF0.04951444110061831
aF0.25177065798997295
aF-0.012569290354978113
aF-0.08063530247528361
aF-0.0222937326963919
aa(lp113
F-0.42990851468081986
aF0.0638129684278848
aF0.24765718703625486
aF-0.010547341935987498
aF-0.08140568675981502
aF-0.01950095470127211
aa(lp114
F-0.4283467448759926
aF0.07536278902680618
aF0.24326971450344181
aF-0.017316570772430873
aF-0.07872961172310211
aF-0.027623495408870324
aa(lp115
F-0.42672873312130893
aF0.08360991522851181
aF0.2397212278023977
aF-0.004079868214090121
aF-0.08425219142597346
aF-0.010798046216010437
aa(lp116
F-0.4231628601213385
aF0.09708073973186782
aF0.23299231666206643
aF-0.0139666354177721
aF-0.08005877916863469
aF-0.023037076653578348
aa(lp117
F-0.421183521449575
aF0.10445933648896275
aF0.22890766565502663
aF-0.010182297460871625
aF-0.08221208318280804
aF-0.01734884633395639
aa(lp118
F-0.4181648007017366
aF0.11421730495516874
aF0.22319428788326307
aF-0.003588303293703854
aF-0.08468690653457073
aF-0.009804866070187934
aa(lp119
F-0.41582821589732955
aF0.12037115981709136
aF0.2193584557436482
aF-0.012596243099989524
aF-0.08061042870806157
aF-0.021235009388792525
aa(lp120
F-0.4113890361746559
aF0.1321346550964874
aF0.21148854063414593
aF-0.01602111230593417
aF-0.07998053532442517
aF-0.023932325448452696
aa(lp121
F-0.4077877808655717
aF0.14046363886829033
aF0.20569686684226382
aF-0.008899005323632858
aF-0.08215185772034889
aF-0.01618893296666357
aa(lp122
F-0.4051872193245771
aF0.14561313581502044
aF0.20190749369167643
aF-0.010864932479274891
aF-0.08127073019405762
aF-0.018815673056634896
aa(lp123
F-0.40059495433593667
aF0.15452207669842402
aF0.19447286285213908
aF-0.010733055586023443
aF-0.08106396989238829
aF-0.0182957464495479
aa(lp124
F-0.39799063118014044
aF0.15765498683822837
aF0.19090394391732513
aF-0.011841639575629115
aF-0.08095707658485157
aF-0.018889826760090322
aa(lp125
F-0.39315872186421086
aF0.1610533833017336
aF0.18500319655469216
aF-0.008248234508702046
aF-0.08751102720899068
aF-0.016318652670329836
aa(lp126
F-0.3907169282536983
aF0.1610156239717882
aF0.1830654564674494
aF-0.004563769353968183
aF-0.08642073692618057
aF-0.015072584597173755
aa(lp127
F-0.38554220532852823
aF0.15754968062202543
aF0.18197407170670388
aF0.005725595068742706
aF-0.08916553606417083
aF-0.008784193292791231
aa(lp128
F-0.3836673205415004
aF0.1544801688239715
aF0.1824672817737918
aF0.0062964810294805496
aF-0.08821844897462094
aF-0.016762266341662002
aa(lp129
F-0.3803044052660377
aF0.1490086160013706
aF0.1849455513767315
aF0.0003302752566671785
aF-0.0851429311333432
aF-0.03279922666169588
aa(lp130
F-0.37689188282386155
aF0.1434588887290573
aF0.188982640437654
aF-0.0007367447800754601
aF-0.08511524172876489
aF-0.039202453639102464
aa(lp131
F-0.3729829095071947
aF0.13691473167229642
aF0.19568583376090637
aF0.007025710632288629
aF-0.09064619428448312
aF-0.036180454344360236
aa(lp132
F-0.37051395018727296
aF0.13322347605163917
aF0.20224572173377828
aF0.0045231897595423565
aF-0.09218969329823584
aF-0.04533523693411445
aa(lp133
F-0.36916797784526684
aF0.13159789285941795
aF0.20723990416636567
aF0.005809853594857861
aF-0.09803894799938234
aF-0.04973951959957712
aa(lp134
F-0.36731032869069385
aF0.13032179481411144
aF0.21734981170969103
aF0.016887678616180457
aF-0.11029984255303149
aF0.04090872488948505
aa(lp135
F-0.36686004058653865
aF0.13017370710826426
aF0.22014413320293405
aF0.006484296690982161
aF-0.11033976479465069
aF-0.07184285697069748
aa(lp136
F-0.3666054900672834
aF0.13099976567851068
aF0.22842938899670975
aF0.008163160285799664
aF-0.12302546063086006
aF-0.06343608057412076
aa(lp137
F-0.3662606551503533
aF0.13254293236032125
aF0.23706741867295453
aF0.003475789354076886
aF-0.13442398213739937
aF-0.06276145467004146
aa(lp138
F-0.3663125838604831
aF0.13555597775304767
aF0.24882659033565638
aF0.0066593380543666925
aF-0.1442345999052675
aF-0.05396247272345711
aa(lp139
F-0.36661116327996907
aF0.13684866463559814
aF0.25466633565914626
aF-0.010414663168472504
aF-0.1476708073272633
aF-0.07322818702614065
aa(lp140
F-0.3657609840472182
aF0.13749446575443314
aF0.2666033507265858
aF-0.006359192144280934
aF-0.1581117366879573
aF-0.07001319574499187
aa(lp141
F-0.3652820048750472
aF0.13726065256879633
aF0.2725708960557915
aF-0.009304054936361439
aF-0.16704412479869718
aF-0.07600274796153328
aa(lp142
F-0.3639818608712399
aF0.13449938892080263
aF0.2843242569935553
aF-0.007242179264925541
aF-0.17669635050261323
aF-0.07605106100147174
aa(lp143
F-0.3628412243279321
aF0.13069335916533673
aF0.29296439190646373
aF-0.004831776966024437
aF-0.1844669005412684
aF-0.07773092835743522
aa(lp144
F-0.3615083124949066
aF0.12721650677617072
aF0.29872725060954575
aF-0.014520527398695027
aF-0.18725358440904785
aF-0.09924130847524149
aa(lp145
F-0.3598364016672856
aF0.12020250624421122
aF0.3087780168226454
aF-0.008193428030396355
aF-0.19595536211047077
aF-0.10040964455248025
aa(lp146
F-0.3589331982064075
aF0.11494461504228587
aF0.31526333990495903
aF-0.005009355124346415
aF-0.20441814275785766
aF-0.10585389061446238
aa(lp147
F-0.3566834509391257
aF0.10539285899092667
aF0.3254821930790588
aF-0.00623444821177177
aF-0.20952158079098254
aF-0.11944828669362173
aa(lp148
F-0.3553973494063024
aF0.09962461064273805
aF0.3311208691106167
aF0.002433601796446472
aF-0.2173470504952807
aF-0.11977291510829025
aa(lp149
F-0.3535328482167125
aF0.09136557819322463
aF0.33860550972162806
aF0.003959562814000339
aF-0.22157183732292784
aF-0.13348870247831934
aa(lp150
F-0.3519136192706425
aF0.08365671401394734
aF0.3458603222815494
aF0.008753163946683795
aF-0.2308443493553568
aF-0.13526399188334026
aa(lp151
F-0.30705478871019315
aF0.00013604811322151026
aF0.4864287400368901
aF-0.1704929498227039
aF-0.5380071198633123
aF0.09266226687948098
aa(lp152
F-0.3070401698402206
aF0.0001369594293588187
aF0.48644288079606873
aF-0.17063062170416488
aF-0.5381615443584226
aF0.09227548284040066
aa(lp153
F-0.307028051861956
aF0.0001372195547147485
aF0.4864533209927651
aF-0.17156145893310992
aF-0.5369997912005966
aF0.09346059670291229
aa(lp154
F-0.3070131741473138
aF0.00013485938768288875
aF0.486471278747112
aF-0.16929155161144027
aF-0.5380669807967426
aF0.0918698276411567
aa(lp155
F-0.30701177037597693
aF0.0001322823608791017
aF0.48648009502094725
aF-0.17061882502343872
aF-0.5382943310288794
aF0.09185735874529799
aa(lp156
F-0.30701419041165223
aF-0.00034190678484130626
aF0.4864972429598875
aF-0.15318965342923452
aF-0.5346206315597916
aF0.3911100340926519
aa(lp157
F-0.3070412352680703
aF-0.002333441355458842
aF0.48651616822706073
aF-0.16713214723429826
aF-0.5377012120538707
aF0.09030346620513452
aa(lp158
F-0.30714456892850567
aF-0.007263368696453569
aF0.4866253173630868
aF-0.16504744215824863
aF-0.5372415827845551
aF0.09086026261838964
aa(lp159
F-0.30713915209974774
aF-0.011601491363496759
aF0.486690246933808
aF-0.15760686725222972
aF-0.5349491445908985
aF0.09862094518122766
aa(lp160
F-0.3074099529759378
aF-0.016265746649647125
aF0.48659246960562386
aF-0.15224528467583442
aF-0.5365266618314354
aF0.09071305379054273
aa(lp161
F-0.308294558864233
aF-0.024592254680453535
aF0.4836875057332117
aF-0.14481561641740393
aF-0.5353963721165476
aF0.08877385982036445
aa(lp162
F-0.3091069818194737
aF-0.030206037297232317
aF0.48012396813648806
aF-0.14103704204159717
aF-0.529300816545288
aF0.09159234601461685
aa(lp163
F-0.310984060309656
aF-0.04012935347213488
aF0.4717064852545093
aF-0.13261062126953227
aF-0.5238578469879471
aF0.08482335264747132
aa(lp164
F-0.31252216240909936
aF-0.046144739433644465
aF0.46561734824801576
aF-0.12563401524646833
aF-0.515003595835994
aF0.08615889578666369
aa(lp165
F-0.31418948435518995
aF-0.05457905687047147
aF0.4562352097337675
aF-0.11859933655335886
aF-0.5053473360950466
aF0.08450220513132489
aa(lp166
F-0.3156980043838005
aF-0.06317897123349743
aF0.4458187637702763
aF-0.13754775407163794
aF-0.5083951838036238
aF0.24856412668550476
aa(lp167
F-0.3168605769760668
aF-0.07199858195670622
aF0.4344403897940488
aF-0.14612286590407186
aF-0.4274228872223923
aF0.31242900913844807
aa(lp168
F-0.31756433079239976
aF-0.07787243540666215
aF0.4264387553403374
aF-0.02521482435957567
aF-0.4863248074060879
aF0.27521957135871156
aa(lp169
F-0.31874831087916217
aF-0.08959388111452694
aF0.40986251097104587
aF-0.03269514281443875
aF-0.4709489939828049
aF0.0024950996980623863
aa(lp170
F-0.3188625335502168
aF-0.09497437816235632
aF0.40139471139819555
aF-0.03149301088973355
aF-0.45640545335262417
aF-0.0006446631023482308
aa(lp171
F-0.3197972070507394
aF-0.1040135680445129
aF0.38395073400207147
aF-0.026853848084323395
aF-0.4460136303129238
aF0.25414773828765935
aa(lp172
F-0.31990760111514727
aF-0.1088773537376272
aF0.3708149831161542
aF-0.0034216149436420706
aF-0.44327702275532527
aF0.23556119156138178
aa(lp173
F-0.3197545449587214
aF-0.11184328382669231
aF0.36208213101528025
aF-0.032006179485525754
aF-0.41247141539942583
aF-0.03280913568981547
aa(lp174
F-0.32016122169930034
aF-0.11820460241222094
aF0.3446070476817154
aF-0.026059435860034896
aF-0.39999344754129057
aF-0.02972328388457357
aa(lp175
F-0.3198983264882056
aF-0.12154440795663579
aF0.33598937420733743
aF-0.0265709438951377
aF-0.3849816229526144
aF-0.039337309997837355
aa(lp176
F-0.3198621323240895
aF-0.12702683643353047
aF0.3229798146101021
aF-0.025058570678907932
aF-0.37112019346127506
aF-0.04648988520466779
aa(lp177
F-0.3198293291874121
aF-0.13394245492179405
aF0.30763473530145263
aF-0.02232545376756989
aF-0.35659680793318255
aF-0.05363556669298619
aa(lp178
F-0.3197236355181132
aF-0.13989834741460477
aF0.295164023745089
aF-0.021901413565394434
aF-0.34256685511342666
aF-0.062440431665342855
aa(lp179
F-0.3195232192867962
aF-0.14584245019376987
aF0.2830039299325671
aF-0.01777433067751355
aF-0.33400554302815333
aF-0.060682269491829866
aa(lp180
F-0.3191451557591741
aF-0.15018317679359242
aF0.27449354333377723
aF-0.015700903486838724
aF-0.31630890091814134
aF-0.07207229552622563
aa(lp181
F-0.31877856536973137
aF-0.1575842841607757
aF0.2598034219876263
aF-0.009918533471214852
aF-0.30389373833097394
aF-0.07386889626008375
aa(lp182
F-0.31856475118920746
aF-0.16098511758481546
aF0.25224543510425734
aF-0.0076145864350285475
aF-0.2915727242090431
aF-0.07746994755701708
aa(lp183
F-0.3182476834183184
aF-0.1644624158457533
aF0.24168021894455408
aF-0.005276177263363935
aF-0.280118165407933
aF-0.0812434403277118
aa(lp184
F-0.3176893181693832
aF-0.16571467714629526
aF0.2348578588685803
aF-0.002091397477808732
aF-0.2712081901154457
aF-0.07778370591139705
aa(lp185
F-0.31744082373996585
aF-0.16851898054448589
aF0.2217364243800724
aF-0.0013029247683568057
aF-0.2603210591921683
aF-0.08206750099969451
aa(lp186
F-0.317002039708393
aF-0.1701101587372557
aF0.21540865213924845
aF0.002742760432733693
aF-0.25201182611610057
aF-0.07882379828056907
aa(lp187
F-0.3165730601026204
aF-0.17290527771103323
aF0.2063173527279517
aF0.005858595090687979
aF-0.24293579629063333
aF-0.07897333056525446
aa(lp188
F-0.31637956703677084
aF-0.1767850053131084
aF0.19465911884248815
aF0.008219154994691724
aF-0.23411884715233805
aF-0.07965988588671813
aa(lp189
F-0.3159458985501484
aF-0.17821409317696146
aF0.18636710287691333
aF0.011809085262960872
aF-0.22741715629044007
aF-0.07693314104691851
aa(lp190
F-0.3155053645904467
aF-0.17842271519173553
aF0.1784807239807437
aF0.014332371520407228
aF-0.22101542514101036
aF-0.07276627285653658
aa(lp191
F-0.3150559881481859
aF-0.1781572914971141
aF0.17345852604648979
aF0.013649342671222753
aF-0.2140181438822336
aF-0.07285762963568798
aa(lp192
F-0.31455997498343924
aF-0.17733736225412833
aF0.16377608297194138
aF0.01619179849785779
aF-0.20947230318164672
aF-0.06769582321934586
aa(lp193
F-0.3152662734951748
aF-0.1774793664774322
aF0.15904477557736565
aF0.01702556888405049
aF-0.2036035256849893
aF-0.06481960650125673
aa(lp194
F-0.31595097039377634
aF-0.17779902991986812
aF0.15247546687701105
aF0.016383299918762084
aF-0.1966542567072596
aF-0.06512162888835116
aa(lp195
F-0.31762368484450426
aF-0.178746360497606
aF0.14615339928582874
aF0.017515868829407033
aF-0.18990803171688558
aF-0.06353730712325811
aa(lp196
F-0.32111073285785574
aF-0.1808259141494561
aF0.13863398114529896
aF0.01636673574772618
aF-0.1815331712466448
aF-0.06612626502688101
aa(lp197
F-0.3247127199220657
aF-0.1831240301514492
aF0.1329025551545302
aF0.01454386150622522
aF-0.17284249303240623
aF-0.06988342017293214
aa(lp198
F-0.3271209512860014
aF-0.1848596732919359
aF0.12907986231394175
aF0.013424904500541457
aF-0.1641908903686028
aF-0.07346780087880922
aa(lp199
F-0.33254745687032994
aF-0.18868260786748364
aF0.1222632917734216
aF0.013705076134829408
aF-0.15737561471558087
aF-0.07272694641998845
aa(lp200
F-0.33394680282044015
aF-0.18949196922216222
aF0.12060072350259905
aF0.012362809863583069
aF-0.14858273556095292
aF-0.07584455626536246
aa(lp201
F-0.3387015535550611
aF-0.1916590592229829
aF0.11589745001404833
aF0.010598850561846729
aF-0.14148208886731162
aF-0.07577059428854538
aa(lp202
F-0.343265824375981
aF-0.19270679848275613
aF0.11141151767946528
aF0.00806921676493666
aF-0.13412190276351188
aF-0.07700216275217664
aa(lp203
F-0.34799691574009844
aF-0.19234235652631215
aF0.10587973426504087
aF0.004832965038187087
aF-0.12783283663722622
aF-0.07797235857205242
aa(lp204
F-0.3508883902244956
aF-0.19098415785718692
aF0.10187805735928332
aF0.0022408797830177907
aF-0.12264118560315385
aF-0.07716532162146161
aa(lp205
F-0.35201045310351176
aF-0.1897320698897005
aF0.09949139878908013
aF0.0021969926420905006
aF-0.12159331733236012
aF-0.0729054401324376
aa(lp206
F-0.3542957191965094
aF-0.18843182613122741
aF0.09463115763086893
aF0.0009524633137818483
aF-0.1172785211762728
aF-0.07027968102532367
aa(lp207
F-0.35489452967605967
aF-0.18737989999393775
aF0.09244815933952127
aF-0.0003277265797604345
aF-0.11398247000733674
aF-0.0701562874069126
aa(lp208
F-0.3556708920137536
aF-0.18612479042237826
aF0.08818899638058995
aF0.00013013129038397242
aF-0.11358203990503923
aF-0.06584641203743957
aa(lp209
F-0.3556643695001801
aF-0.1859060474996277
aF0.08626250450302168
aF7.454477169011042e-05
aF-0.110499776181059
aF-0.0654639860487305
aa(lp210
F-0.3558980577161609
aF-0.185292200109485
aF0.08327843022355953
aF0.0007886140978853318
aF-0.10939820611955842
aF-0.06270181349993709
aa(lp211
F-0.355603703739613
aF-0.18355502620992975
aF0.08057183149395468
aF0.002904117769148673
aF-0.11017217144866964
aF-0.05685961430237563
aa(lp212
F-0.3549309768518312
aF-0.18202490751810632
aF0.07741961029892305
aF0.0018717717650538201
aF-0.10783847146362247
aF-0.05606582547199768
aa(lp213
F-0.35445806992706413
aF-0.18169125332759314
aF0.07504795956966824
aF0.002833132273110439
aF-0.10765356672119608
aF-0.053752450587142286
aa(lp214
F-0.3542548283133314
aF-0.18190859976248502
aF0.07333813724046048
aF-0.00020407120217802444
aF-0.10206777144848245
aF-0.06055281097197107
aa(lp215
F-0.353745783488536
aF-0.18313541794365343
aF0.0706094912434637
aF0.0028701862592235283
aF-0.10175676325499439
aF-0.05648836671479529
aa(lp216
F-0.35380262270849505
aF-0.18416694395358768
aF0.06923460352298672
aF0.006039452130978784
aF-0.1016898394348118
aF-0.05302458057604942
aa(lp217
F-0.35441207068131336
aF-0.18508733445814524
aF0.0679575838492345
aF0.005445407908035049
aF-0.09849197477173222
aF-0.05524968053938495
aa(lp218
F-0.3566748367877908
aF-0.18560154693513153
aF0.06555869173639524
aF0.004433099335737878
aF-0.09458639505067246
aF-0.0564446772844176
aa(lp219
F-0.3595686738151573
aF-0.1846473006593911
aF0.06385425102735999
aF0.003924572824924533
aF-0.09338363109498993
aF-0.0528312652900067
aa(lp220
F-0.3632339866550725
aF-0.1839627706638183
aF0.06219514695112697
aF-0.000624570877738706
aF-0.08824595156231507
aF-0.05529997429348055
aa(lp221
F-0.36589963759856386
aF-0.18372239200619322
aF0.061089371210594136
aF-3.399228791134412e-05
aF-0.08803398823090802
aF-0.048968870326200564
aa(lp222
F-0.37208619816953314
aF-0.1842410335823173
aF0.05903332898157941
aF-0.007051239848029578
aF-0.07919975721037376
aF-0.05770281482773809
aa(lp223
F-0.37530818109534353
aF-0.1848431228213168
aF0.05812238558822496
aF-0.009583805825375213
aF-0.07433454657496708
aF-0.05780937543684628
aa(lp224
F-0.3802854315043259
aF-0.18614692777674455
aF0.0568470678177632
aF-0.011517516892020296
aF-0.06984079270717447
aF-0.05880309987602428
aa(lp225
F-0.38581904445621445
aF-0.18694618869341464
aF0.055554355322042205
aF-0.016461915460633136
aF-0.06299216637947802
aF-0.062397094124194696
aa(lp226
F-0.39222353333835414
aF-0.18514956081554904
aF0.05428584816759393
aF-0.018413590954720394
aF-0.062188723432555215
aF-0.05590293596792617
aa(lp227
F-0.39801096679107545
aF-0.18211060386738137
aF0.053154015121657114
aF-0.022477560945453723
aF-0.06052203965369285
aF-0.051580405340993396
aa(lp228
F-0.40136003725735503
aF-0.1791718234951858
aF0.052502155884046185
aF-0.030154195323020105
aF-0.05337589189781822
aF-0.056994167696126974
aa(lp229
F-0.4052409272896335
aF-0.1738960850451375
aF0.054133130754977554
aF-0.022652576027695992
aF-0.055052359918995264
aF-0.05307341115343922
aa(lp230
F-0.4068554567432591
aF-0.17040047137682446
aF0.056881105666216285
aF-0.029534861045557026
aF-0.04808340918884735
aF-0.06453540489851761
aa(lp231
F-0.4083924657903137
aF-0.1655558928461235
aF0.06227849127944151
aF-0.0244790456295767
aF-0.0535347027235773
aF-0.055978105346464524
aa(lp232
F-0.4090212742795259
aF-0.16053636166809937
aF0.06950903124096477
aF-0.023126156445871127
aF-0.056048817436110565
aF-0.052474059741304035
aa(lp233
F-0.4087106198431147
aF-0.1552215589907858
aF0.07817119393803523
aF-0.025014604944468943
aF-0.054899537377604
aF-0.05596875873191265
aa(lp234
F-0.4083177410267972
aF-0.15157388799897323
aF0.08457184041598795
aF-0.022643201291653092
aF-0.05798036216404001
aF-0.0510642775831287
aa(lp235
F-0.40680327694822643
aF-0.14436633867972162
aF0.09858854355631638
aF-0.02347855920955111
aF-0.058271690038832924
aF-0.051883059784265884
aa(lp236
F-0.40557015043927125
aF-0.14063331783201002
aF0.10620431046339027
aF-0.024439189419287577
aF-0.05832819589632554
aF-0.05296066308307501
aa(lp237
F-0.40293217411892046
aF-0.13326001716258462
aF0.12201027206028088
aF-0.02533053341603919
aF-0.05781718296753868
aF-0.054857700026829326
aa(lp238
F-0.40142020527411765
aF-0.12957129399939205
aF0.13015578378020667
aF-0.021494488064629724
aF-0.061559931225525055
aF-0.04907544796437313
aa(lp239
F-0.39838968621119125
aF-0.1224572982359547
aF0.1467854666680859
aF-0.01739603716861826
aF-0.06612015340065758
aF-0.04158800551434183
aa(lp240
F-0.39665431219298264
aF-0.11893413473800155
aF0.15517206692194796
aF-0.016830252009054414
aF-0.06660916491918223
aF-0.04136034133116295
aa(lp241
F-0.39263802544776494
aF-0.11185428248978897
aF0.17225142201226767
aF-0.01740663700526246
aF-0.0677747618756041
aF-0.04129317765568308
aa(lp242
F-0.3900391313472328
aF-0.10658638675150736
aF0.1848786670806166
aF-0.012823029293315469
aF-0.07146039451935143
aF-0.03345055726706314
aa(lp243
F-0.3885760877750276
aF-0.10233492535843478
aF0.1932391806551649
aF-0.015008657332959974
aF-0.07012655666847362
aF-0.03739285773644174
aa(lp244
F-0.3867823121542934
aF-0.09283648101825356
aF0.20829196828585644
aF-0.008717332820167623
aF-0.07488041473205154
aF-0.026132437494375438
aa(lp245
F-0.3864020731187637
aF-0.08577556883669235
aF0.2178678348051377
aF-0.006687251650606574
aF-0.0765205223247809
aF-0.02249735852417034
aa(lp246
F-0.3870530704829885
aF-0.07354743880162332
aF0.2314923855411616
aF-0.008820296271351169
aF-0.07602282182219428
aF-0.025341748906462014
aa(lp247
F-0.38844566870183833
aF-0.06602017110368735
aF0.23823430194444578
aF-0.010151226883060027
aF-0.07502666061348529
aF-0.028194419651669245
aa(lp248
F-0.3913702435965759
aF-0.05260180722278764
aF0.24712757070870892
aF-0.008799077957565515
aF-0.07623811924084517
aF-0.025239509474782373
aa(lp249
F-0.3932615299120406
aF-0.04482493273208726
aF0.2508397230974075
aF-0.004042031815333691
aF-0.07917045947915652
aF-0.016647846699588298
aa(lp250
F-0.39627996329822257
aF-0.03364140744736032
aF0.2546744892405138
aF-0.009154867645632558
aF-0.07696751033698579
aF-0.024267137903526192
aa(lp251
F-0.39810157416961556
aF-0.02594718560555081
aF0.25655589862554995
aF-0.008573840440348701
aF-0.07718957343995436
aF-0.02324107006956444
aa(lp252
F-0.4001882136606594
aF-0.014267271849909806
aF0.25810265862128023
aF-0.003006961607300407
aF-0.08007375070747413
aF-0.014005509779849268
aa(lp253
F-0.4014218258603291
aF-0.0025324260676264842
aF0.2582990275276292
aF-0.0039904266452129855
aF-0.07986429151100027
aF-0.015076224578192132
aa(lp254
F-0.40232650094805755
aF0.013204502907511108
aF0.25656277933651944
aF-0.003026549049478966
aF-0.08033313934662295
aF-0.013791572217535242
aa(lp255
F-0.4024109559684326
aF0.024911208171886984
aF0.2544589424168411
aF-0.011345333214464293
aF-0.07649663445799221
aF-0.02559314414855196
aa(lp256
F-0.4020755605077815
aF0.0325904309892431
aF0.2528879571833411
aF-0.003902344950260761
aF-0.07996544517273291
aF-0.014762070412976946
aa(lp257
F-0.40080080211785835
aF0.047706895838747064
aF0.24907576780974913
aF-0.009066237216905804
aF-0.0776100850129286
aF-0.02194535374990103
aa(lp258
F-0.39989968609307586
aF0.054908986946500274
aF0.24684258162825698
aF-0.007001871309641361
aF-0.078634199583753
aF-0.018421934114105643
aa(lp259
F-0.3981412307924529
aF0.06550077146162703
aF0.24311665660037687
aF-0.010024946135620105
aF-0.07768351041827137
aF-0.02189926778350859
aa(lp260
F-0.39599411466367485
aF0.07518896120125403
aF0.2395967989203793
aF-0.00887965910029187
aF-0.07792510891662574
aF-0.020858486831653922
aa(lp261
F-0.3936463993351094
aF0.08510906144233575
aF0.2352468150167725
aF-0.005326221092582184
aF-0.07963028846898262
aF-0.015731294626882164
aa(lp262
F-0.3923471815578276
aF0.09159794007652577
aF0.23109846015436133
aF-0.004585012409345057
aF-0.07972251895220778
aF-0.015104554924967095
aa(lp263
F-0.3912533644229226
aF0.09556047851390674
aF0.22781801897686965
aF-0.010885900475503751
aF-0.07735333435255898
aF-0.02244679106619163
aa(lp264
F-0.38941290234246034
aF0.10048812890602053
aF0.22231983729101895
aF-0.012554692767534403
aF-0.07596438030176772
aF-0.0253659293892754
aa(lp265
F-0.38831572163567885
aF0.10246130130917736
aF0.21932833975440888
aF-0.004495348394819354
aF-0.08014560936126008
aF-0.013492554209730834
aa(lp266
F-0.38614431743031064
aF0.10581063447365234
aF0.21423373307771157
aF-0.009909913617454746
aF-0.07752283714796698
aF-0.021301251981290514
aa(lp267
F-0.3857655975410116
aF0.10679684261193816
aF0.21294137021961984
aF-3.136716685681051e-05
aF-0.08166100108609381
aF-0.008287839687824095
aa(lp268
F-0.3850703914264907
aF0.11006963686870426
aF0.2094276362916469
aF-0.00740247839154784
aF-0.07864382356822669
aF-0.017523707953085443
aa(lp269
F-0.3853333410917359
aF0.11394714449450447
aF0.2063562699067901
aF1.7769513695808925e-05
aF-0.08190675339236941
aF-0.00777562819286981
aa(lp270
F-0.38623819170427154
aF0.11990234032089715
aF0.2036434283685582
aF-0.003500017220675611
aF-0.0799888009762521
aF-0.012745226216790417
aa(lp271
F-0.38731265938602194
aF0.12318933701672787
aF0.2027489056687719
aF-0.0057787977820968894
aF-0.0788489952931346
aF-0.01631831183157706
aa(lp272
F-0.39032934225277427
aF0.13017777436697556
aF0.2017283603864579
aF-0.00811532771871537
aF-0.0778536790405796
aF-0.019038258834644273
aa(lp273
F-0.3935937998249164
aF0.13572600081103228
aF0.20144780000402232
aF-0.009588485616687237
aF-0.0775484470916385
aF-0.020146845078741427
aa(lp274
F-0.39521049623437005
aF0.13924145244589226
aF0.20153918937327484
aF-0.010409707006376223
aF-0.07730843190858905
aF-0.02068826503786325
aa(lp275
F-0.39730625185423335
aF0.14511990704247357
aF0.20226608742147062
aF-0.00033444644282698555
aF-0.08171818984089707
aF-0.00819608995757326
aa(lp276
F-0.3978320614589439
aF0.14721757364582325
aF0.20284867679807908
aF-0.006926145698173292
aF-0.07864799968358271
aF-0.016596459188075174
aa(lp277
F-0.39788931670049815
aF0.14914327458897594
aF0.2039722871543399
aF0.0029059757585836454
aF-0.08224182391112667
aF-0.005923268955407401
aa(lp278
F-0.3973631223598674
aF0.14986171740157803
aF0.20614280765860987
aF-0.013419873850463393
aF-0.09407387160196007
aF-0.023356046725329094
aa(lp279
F-0.3961670666583548
aF0.1495474010289973
aF0.21069477833255437
aF-0.01528232567011556
aF-0.11024489576560648
aF-0.030891987876400684
aa(lp280
F-0.39488811410821667
aF0.1484339278784629
aF0.21567903994834936
aF-0.023424943193048664
aF-0.11019492582069185
aF-0.040250234215237324
aa(lp281
F-0.39358277810352943
aF0.14706176299332102
aF0.2199321732709792
aF-0.015303673119475558
aF-0.11843989372209768
aF-0.0334225943638542
aa(lp282
F-0.3910789240549475
aF0.14389324817472446
aF0.22828738532085607
aF-0.012207182499152758
aF-0.12473858227296564
aF-0.03545823796430736
aa(lp283
F-0.38961527261313245
aF0.14173260394680773
aF0.23324134588069723
aF-0.02075726824369495
aF-0.12694832368131076
aF-0.05144438663326012
aa(lp284
F-0.3873579533615494
aF0.1383916013163043
aF0.24070859056683475
aF-0.020821087777736613
aF-0.13350067566726953
aF-0.058232313911646294
aa(lp285
F-0.3858922983948729
aF0.13603709508509113
aF0.24580189666054342
aF-0.01736533803306295
aF-0.1404631138347805
aF-0.06254746150281099
aa(lp286
F-0.3071036611991692
aF0.00042539951298956947
aF0.4861077459911621
aF-0.16475743338485815
aF-0.5332166267950649
aF0.07836642218785395
aa(lp287
F-0.3071001919054342
aF0.0004124694883654995
aF0.48613320151017253
aF-0.1628268610313025
aF-0.5348112482359042
aF0.07518829485772027
aa(lp288
F-0.3070770843336162
aF0.000393064131583371
aF0.4861793980775027
aF-0.21387660080150206
aF-0.5194023803732764
aF0.32990367948812116
aa(lp289
F-0.3070731499754346
aF0.00038107075117331963
aF0.4862011045361455
aF-0.16688876640260808
aF-0.5340149383457611
aF0.0779509478706768
aa(lp290
F-0.30707852092797117
aF0.00025391103222265673
aF0.48624595261923387
aF-0.16577271555713047
aF-0.5346401071233002
aF0.0777526904616932
aa(lp291
F-0.30707142967731765
aF-0.0006299318305503498
aF0.48626395548278295
aF-0.16388900614898905
aF-0.5344883346920988
aF0.07551633742962283
aa(lp292
F-0.3070665999895507
aF-0.0033467678467803724
aF0.486294132203388
aF-0.16022868087105802
aF-0.5346104455159016
aF0.07343277207374088
aa(lp293
F-0.3071270914725475
aF-0.008629059632168834
aF0.48636108535568046
aF-0.15293432787590677
aF-0.5350564816818405
aF0.07058204043260652
aa(lp294
F-0.3069630821269706
aF-0.01422899524251724
aF0.48644187922228704
aF-0.1498999650459235
aF-0.5349351440711567
aF0.07170399419941731
aa(lp295
F-0.30716230618888907
aF-0.02077910227470209
aF0.48653271422123073
aF-0.1449255558063831
aF-0.5340035290936669
aF0.07649300751957733
aa(lp296
F-0.30761696161929214
aF-0.025824262841512367
aF0.4865283563870175
aF-0.1796893440053276
aF-0.535838006176338
aF0.2854521143761819
aa(lp297
F-0.3101458590150782
aF-0.03587736843547757
aF0.4847854321331089
aF-0.1308407870596765
aF-0.532211876141799
aF0.07209279435985527
aa(lp298
F-0.31132228773990045
aF-0.038715887520034256
aF0.48372214747146663
aF-0.12154595253608358
aF-0.529181671677899
aF0.06878005500875939
aa(lp299
F-0.31488032322667076
aF-0.04703869523944727
aF0.4791240258183133
aF-0.1164011558240644
aF-0.5236612374023168
aF0.06471179878617406
aa(lp300
F-0.31907483399238795
aF-0.055584035371232556
aF0.4724096807361144
aF-0.10575523895031902
aF-0.5169841962351864
aF0.05521242050787922
aa(lp301
F-0.32580110034767407
aF-0.06720909526893336
aF0.46110780767514836
aF-0.09587309786817688
aF-0.5084346085835013
aF0.050437268943089864
aa(lp302
F-0.33149351464579796
aF-0.07600781720389033
aF0.4512457890006877
aF-0.07366270442985315
aF-0.501797625782667
aF0.2688564011272967
aa(lp303
F-0.3350453385192843
aF-0.08178010337091622
aF0.4440155176687188
aF-0.08766101940570963
aF-0.4868267837639161
aF0.24240472108608668
aa(lp304
F-0.3426013687826348
aF-0.09187165106649622
aF0.42861656834725337
aF-0.060902475307663864
aF-0.47676332605939087
aF0.23732385270394363
aa(lp305
F-0.34572412011787435
aF-0.09570033466270224
aF0.42045885323656257
aF-0.06581061143307676
aF-0.4601357300873362
aF-0.02631874299185788
aa(lp306
F-0.3499378690315766
aF-0.10036237710771678
aF0.40791261325059897
aF-0.07091223201113339
aF-0.444590938516209
aF-0.040277233654839595
aa(lp307
F-0.353014508959724
aF-0.10359515469955174
aF0.3950007435772582
aF-0.07519915877110572
aF-0.429463579068866
aF-0.04865453147818588
aa(lp308
F-0.355533336429011
aF-0.10597170517941784
aF0.3793548437728183
aF-0.07715262356332198
aF-0.4136536660370571
aF-0.05285833638821025
aa(lp309
F-0.35732427289061947
aF-0.10696760725887067
aF0.36876428497658104
aF-0.07689130702653968
aF-0.4003548794865224
aF-0.051508896359215406
aa(lp310
F-0.3581616576941978
aF-0.10765086185543142
aF0.35255639032586367
aF-0.07981468914958523
aF-0.3844648837087533
aF-0.05730601996271356
aa(lp311
F-0.3590904667532557
aF-0.10807226493217745
aF0.34258387063191487
aF-0.08165955067052455
aF-0.36996987823194233
aF-0.06250860591168683
aa(lp312
F-0.3589460722715349
aF-0.10814952016166152
aF0.3262033243004284
aF-0.08092922470401664
aF-0.3567572972462353
aF-0.059338182504333314
aa(lp313
F-0.35910231292328415
aF-0.10819498045168954
aF0.31306643566106523
aF-0.08024885376315571
aF-0.34455563145751467
aF-0.058490688571037674
aa(lp314
F-0.35841165287382526
aF-0.10797956444192541
aF0.3045379496473747
aF-0.07849310494438921
aF-0.3307682729515688
aF-0.05876769876880927
aa(lp315
F-0.3580638059771348
aF-0.10787163156810017
aF0.2924038010303038
aF-0.07933361210028766
aF-0.3198302515774839
aF-0.0572734842537832
aa(lp316
F-0.3573797464994918
aF-0.10792090021357809
aF0.284489043730438
aF-0.07549578841270665
aF-0.3085162907109592
aF-0.05383874210493356
aa(lp317
F-0.3565248601792994
aF-0.10864417905878691
aF0.27288367524083934
aF-0.07734692112301134
aF-0.2956438465933775
aF-0.06045004128449216
aa(lp318
F-0.35513345731509194
aF-0.11006191544673033
aF0.26160519189645615
aF-0.07370928572304258
aF-0.28552371028967327
aF-0.05672132359522708
aa(lp319
F-0.353407406655224
aF-0.11295114768204631
aF0.24736585749105516
aF-0.07063280443305797
aF-0.27454030818644654
aF-0.05755003525818547
aa(lp320
F-0.3524653099598832
aF-0.11591421998200468
aF0.23692203653086222
aF-0.0682788690122722
aF-0.2640560625381567
aF-0.06036207276295369
aa(lp321
F-0.3510741978819197
aF-0.1191809442810752
aF0.22689869393207238
aF-0.06318508660816091
aF-0.25453165459349214
aF-0.05884560171495057
aa(lp322
F-0.3494483592879903
aF-0.12266585482247827
aF0.21733769758234545
aF-0.05959780497528444
aF-0.244625093064751
aF-0.060430510733479714
aa(lp323
F-0.3483004868627062
aF-0.125104631501165
aF0.21117402530004287
aF-0.05495645721591991
aF-0.2362291997090144
aF-0.05981926006612559
aa(lp324
F-0.34647475147136925
aF-0.1295465069741184
aF0.20030053746028476
aF-0.04986166357178379
aF-0.22744180196661612
aF-0.05918539166825321
aa(lp325
F-0.34560186047020963
aF-0.13203412564293288
aF0.19336488586627534
aF-0.04734425330143255
aF-0.2186595980560827
aF-0.06122999178686506
aa(lp326
F-0.3439298650843142
aF-0.13419769304743984
aF0.1852175967103231
aF-0.042058862409656284
aF-0.21270746641108623
aF-0.0579527592818716
aa(lp327
F-0.34216891801631016
aF-0.135736491759457
aF0.1773681920792975
aF-0.03631511689951039
aF-0.20773571347574782
aF-0.0518844028293306
aa(lp328
F-0.34034574245747445
aF-0.13760604444502378
aF0.16784767377523557
aF-0.03620410106638583
aF-0.19931237542565894
aF-0.05692982796399848
aa(lp329
F-0.3388186270754364
aF-0.13903808899026493
aF0.16065136252074716
aF-0.031541617102539554
aF-0.19490940793686845
aF-0.05246941173280262
aa(lp330
F-0.33810275711414545
aF-0.14017962993231892
aF0.15587116295232975
aF-0.027764904225499487
aF-0.1901588417565488
aF-0.048714485043994005
aa(lp331
F-0.3364949324139508
aF-0.14162343295446278
aF0.14937151263260703
aF-0.024917086689565382
aF-0.18514465396900698
aF-0.047528080215043955
aa(lp332
F-0.33566820358977845
aF-0.14269244211448187
aF0.14525612383166583
aF-0.02331949243060205
aF-0.17852980033289378
aF-0.05024400171035759
aa(lp333
F-0.3340607515475138
aF-0.14509031061120453
aF0.1373115200893986
aF-0.019828683439380712
aF-0.173589648362882
aF-0.049385353326939496
aa(lp334
F-0.3329449719631654
aF-0.1462741722404613
aF0.13362378034681371
aF-0.019191166992209574
aF-0.16764521604737448
aF-0.05194935686033397
aa(lp335
F-0.3316704135250345
aF-0.1484261494620222
aF0.12822445948379352
aF-0.015858670178374834
aF-0.16322840181684545
aF-0.05212835505985747
aa(lp336
F-0.3306190204039153
aF-0.1508889057887903
aF0.12309034627546857
aF-0.011471773673622843
aF-0.15960556700435719
aF-0.0493147597228738
aa(lp337
F-0.3290149460405321
aF-0.15441747099447115
aF0.11665722430894478
aF-0.006544328460567739
aF-0.15715584674338118
aF-0.04562581757175166
aa(lp338
F-0.3278585676608163
aF-0.15608495741469455
aF0.11373301821094661
aF-0.004972321890700404
aF-0.15176588868996665
aF-0.04930179281093716
aa(lp339
F-0.3264443017336865
aF-0.15998632466831753
aF0.1078757508636936
aF-0.003368539345694921
aF-0.14587197242408634
aF-0.05344990255596804
aa(lp340
F-0.3257696346695606
aF-0.16197354515369014
aF0.10512541331347881
aF-0.00036267434350334415
aF-0.14240928287131838
aF-0.05390398213962233
aa(lp341
F-0.32437906539722505
aF-0.16552192671321708
aF0.10047926835846313
aF-0.0006790235891479535
aF-0.13725272031289404
aF-0.058871580762323905
aa(lp342
F-0.3236160910378636
aF-0.1686742494264878
aF0.09672330720832585
aF0.0051930033159167666
aF-0.13656763953607742
aF-0.05413489556735418
aa(lp343
F-0.32268725142920773
aF-0.1708333603254453
aF0.0941067670618779
aF0.007901113443861463
aF-0.1326776497279163
aF-0.05557547477718061
aa(lp344
F-0.3217716046198787
aF-0.1751309035705695
aF0.08990912697257318
aF0.010743796479629975
aF-0.12940427449506198
aF-0.05648685260644282
aa(lp345
F-0.32107942508590714
aF-0.1774997658570628
aF0.08772247672110559
aF0.013372937134081275
aF-0.12464937282720967
aF-0.059911349505126665
aa(lp346
F-0.32118035001041784
aF-0.1795379622805016
aF0.0847396298426822
aF0.014862111252005095
aF-0.12162055326099952
aF-0.060532623550031195
aa(lp347
F-0.32209193194359387
aF-0.17907133246375823
aF0.0819658723265199
aF0.017925567423474287
aF-0.12202191221362868
aF-0.053003825263069126
aa(lp348
F-0.3245598568133126
aF-0.17763520263238003
aF0.07930740908980628
aF0.01367443970005433
aF-0.11703014984243787
aF-0.055970826853738
aa(lp349
F-0.32693864987757576
aF-0.176459536837754
aF0.07690294505330596
aF0.012506191505521125
aF-0.11464412620438835
aF-0.052520547269651274
aa(lp350
F-0.32896360633880556
aF-0.17648036011515336
aF0.07524157615388585
aF0.01046652613260246
aF-0.1109499426624041
aF-0.05346092220430698
aa(lp351
F-0.3316526102287323
aF-0.17700023226280698
aF0.07237442622748035
aF0.00922575119001312
aF-0.10658003205147826
aF-0.05429384896172418
aa(lp352
F-0.33327600919154776
aF-0.17785880846121352
aF0.07092568673195823
aF0.00716376102021965
aF-0.10145152102503097
aF-0.058412397658544224
aa(lp353
F-0.3362379392710418
aF-0.17989847168392742
aF0.06833553922459329
aF0.005200206118884498
aF-0.09580803270638516
aF-0.0619197227861783
aa(lp354
F-0.33845027761387286
aF-0.1810752315094709
aF0.06704425797896003
aF0.004621097124310691
aF-0.09246686111513025
aF-0.06207418173831547
aa(lp355
F-0.343481989776953
aF-0.18243168774927604
aF0.06464359907594863
aF0.005755057723113466
aF-0.08998057055523023
aF-0.05820448626759478
aa(lp356
F-0.34676970798962314
aF-0.18301164841090165
aF0.06338575507586508
aF0.0035102365410094594
aF-0.08608098944361431
aF-0.05798007658609161
aa(lp357
F-0.35265420367621575
aF-0.1835488462996901
aF0.06146656802461416
aF-0.0008682730342097766
aF-0.07995565002903104
aF-0.06085404691523211
aa(lp358
F-0.35722641835864943
aF-0.1837742332885354
aF0.06019497497583082
aF-0.004496731753044991
aF-0.07471293656470257
aF-0.06254465486490557
aa(lp359
F-0.3628201191200403
aF-0.18310090889379488
aF0.058807887414937844
aF-0.008280077641112826
aF-0.07002696287535848
aF-0.061767846196785214
aa(lp360
F-0.3687750622800239
aF-0.18125572077696475
aF0.05749246796558931
aF-0.012417196758011784
aF-0.06756846320813059
aF-0.05849185280815261
aa(lp361
F-0.37636369836103817
aF-0.17695587739030572
aF0.05592360461383927
aF-0.01895293446169999
aF-0.06297988986795988
aF-0.05674396139257243
aa(lp362
F-0.3814138717671276
aF-0.17269190844072072
aF0.05496516641732419
aF-0.024540548782729266
aF-0.06098739625218885
aF-0.05313798538911785
aa(lp363
F-0.3842952604302359
aF-0.1696713644028296
aF0.05499309499880611
aF-0.02441220998705884
aF-0.0582713640196606
aF-0.05604598801301308
aa(lp364
F-0.386936505510871
aF-0.16552579636860704
aF0.057140665308760746
aF-0.02663811721578313
aF-0.05386843935329444
aF-0.06343691599306256
aa(lp365
F-0.38852295325875413
aF-0.1634078931647183
aF0.05977584288322243
aF-0.02154023358315227
aF-0.05912050980809791
aF-0.05509673802929482
aa(lp366
F-0.39114455169980183
aF-0.1609947841007739
aF0.06799711481964385
aF-0.02537790725678768
aF-0.055290616877359366
aF-0.061683743653329515
aa(lp367
F-0.3918135361700626
aF-0.15990794853752371
aF0.07303991527496728
aF-0.025728542713817304
aF-0.05605945012939895
aF-0.06087063358859823
aa(lp368
F-0.3923870598261707
aF-0.15783175070956776
aF0.08185675402702416
aF-0.02108526009688727
aF-0.06070065866842311
aF-0.0536859971095387
aa(lp369
F-0.39197875609458815
aF-0.15394434740195417
aF0.09522332115327425
aF-0.02425001467514154
aF-0.05852332837846319
aF-0.058741814053927977
aa(lp370
F-0.3914853739978164
aF-0.1500956771499897
aF0.10618209904163811
aF-0.023567429935558937
aF-0.06028777047013467
aF-0.057535541573511484
aa(lp371
F-0.39095021042825945
aF-0.1441400971939905
aF0.11775858748863527
aF-0.02178496545466546
aF-0.06196261584440388
aF-0.05458062227100746
aa(lp372
F-0.39088555727756713
aF-0.13924313634073934
aF0.1258038286585979
aF-0.017280024458129817
aF-0.0671256353026537
aF-0.04648220464348052
aa(lp373
F-0.3916980533893313
aF-0.12860549897405055
aF0.14072254332136364
aF-0.01728560881720187
aF-0.06792406858845346
aF-0.046141929955384686
aa(lp374
F-0.39273455849698186
aF-0.12076215873214705
aF0.15054702328358394
aF-0.010642337466576612
aF-0.07392243994189107
aF-0.03375969628071984
aa(lp375
F-0.39507717238110446
aF-0.10678103906650123
aF0.1664295012971791
aF-0.015464474871823453
aF-0.07104067909604506
aF-0.04162610521428922
aa(lp376
F-0.39687172419977457
aF-0.09800023826510858
aF0.17584841663459708
aF-0.015717733901350783
aF-0.07179740452984573
aF-0.041416172514301186
aa(lp377
F-0.40004012439912984
aF-0.08568901092035978
aF0.18843090703802168
aF-0.01076696154716894
aF-0.07562576023183115
aF-0.03254066124565291
aa(lp378
F-0.40347199709505727
aF-0.07290546621890738
aF0.20087413440254895
aF-0.012182793938445236
aF-0.07588370189198251
aF-0.033945449183687026
aa(lp379
F-0.4064173703684667
aF-0.05953178833061013
aF0.21338031508345268
aF-0.0071768689215582215
aF-0.07923617960751661
aF-0.025618849190938597
aa(lp380
F-0.40750676433528
aF-0.05075923602802848
aF0.22145056047547987
aF-0.009700873552545453
aF-0.07820646473204967
aF-0.029223917923116627
aa(lp381
F-0.4093749123628777
aF-0.03305435752103641
aF0.23547754832998777
aF-0.0041223693733394295
aF-0.08151230970652612
aF-0.020096300284402346
aa(lp382
F-0.4097954234840758
aF-0.019791900977354913
aF0.2430956331304612
aF-0.004991344274549059
aF-0.08147344803293999
aF-0.02095798706596308
aa(lp383
F-0.4103589279295986
aF-0.010974792640895282
aF0.24707199236589997
aF-0.002473477321372264
aF-0.08269714348234586
aF-0.01734987065852933
aa(lp384
F-0.41062326467686133
aF0.006383133423131545
aF0.25333162071478743
aF-0.006389656455531023
aF-0.0811613704303909
aF-0.02250551610505669
aa(lp385
F-0.410735894351317
aF0.01493271544506273
aF0.25556337918990485
aF-0.004590769529031591
aF-0.082454776457627
aF-0.01927610243251765
aa(lp386
F-0.4103530866560554
aF0.027586964229482893
aF0.2579369192326259
aF-0.00445472174056416
aF-0.08255169845755189
aF-0.018793506555277784
aa(lp387
F-0.4093941036362207
aF0.039899965426957985
aF0.25904875371813074
aF-0.0040827044652113065
aF-0.0827027801179584
aF-0.018486218486430284
aa(lp388
F-0.40753328760110485
aF0.05390684557566553
aF0.25896470659377896
aF-0.0050095101036934375
aF-0.08232870181232466
aF-0.01960997539674114
aa(lp389
F-0.40577702192631654
aF0.06514813100151134
aF0.25739243400234557
aF-0.0038984032674380664
aF-0.0831434364005002
aF-0.01741956891004426
aa(lp390
F-0.40417106023988236
aF0.07337018749719804
aF0.25536405998707995
aF-0.0010186297845858894
aF-0.08444310041480313
aF-0.01351067255247318
aa(lp391
F-0.4010211936818713
aF0.08630099779749752
aF0.2508395296739722
aF-0.01026130855970131
aF-0.08021031667002948
aF-0.025892523582939475
aa(lp392
F-0.39915789141111735
aF0.0929240508895257
aF0.24774747663385163
aF0.0021127238229696754
aF-0.0856202939948561
aF-0.008995720535855956
aa(lp393
F-0.3967000913812357
aF0.10094232982710158
aF0.24296503115384982
aF-0.0013210070850271372
aF-0.08384508487713171
aF-0.014490990169449214
aa(lp394
F-0.3948243583849699
aF0.10576780050400311
aF0.23940479590891756
aF-0.0030787801505944845
aF-0.08337249790861906
aF-0.01601915211500904
aa(lp395
F-0.39091313586049886
aF0.11291386397672157
aF0.23183458385887304
aF-0.0018899855875902372
aF-0.08339779515545587
aF-0.014885809714020315
aa(lp396
F-0.3882264248166989
aF0.11697157134168801
aF0.22581068822279066
aF-0.0033711353680196954
aF-0.08332252072484714
aF-0.016124298753443345
aa(lp397
F-0.3871251332312173
aF0.1198108938083561
aF0.22172412259442548
aF0.001996159794733332
aF-0.08548053166363212
aF-0.008997254819306466
aa(lp398
F-0.3855851694435625
aF0.12575250118955433
aF0.2141038944741596
aF-0.00036668963793751175
aF-0.08400553099032171
aF-0.01294049388432783
aa(lp399
F-0.38585095416593695
aF0.129150040011381
aF0.2107222063914537
aF-0.001324677151671949
aF-0.08398886400489397
aF-0.01312136296132449
aa(lp400
F-0.38598781141571314
aF0.13402292891536982
aF0.20655716551259173
aF-0.006384740887124485
aF-0.08127880552888511
aF-0.019799017119575657
aa(lp401
F-0.3877143921930152
aF0.13951243500252117
aF0.20329409656313646
aF-0.001699897700890407
aF-0.0836259813878476
aF-0.013880762897227283
aa(lp402
F-0.389234595982646
aF0.14574453071991403
aF0.20111901404865487
aF-0.005494366514698257
aF-0.08211829877636107
aF-0.018523608651781487
aa(lp403
F-0.3896500289841381
aF0.1479192575288372
aF0.2010842275636402
aF-0.018831427284581315
aF-0.07522811344062263
aF0.034213040040690146
aa(lp404
F-0.3897225169464289
aF0.15022495519547896
aF0.20305746777264347
aF-0.005993167075947214
aF-0.08967658293051439
aF-0.017771743929884565
aa(lp405
F-0.389140935010536
aF0.1508715266415416
aF0.20645596335149266
aF-0.006380552090575309
aF-0.10989766348692714
aF-0.02644693821375066
aa(lp406
F-0.3883804898690722
aF0.15068064466697373
aF0.20989086427001782
aF-0.010683765355869346
aF-0.10941431229037135
aF0.029430325468038365
aa(lp407
F-0.3869819438668739
aF0.14956594909165702
aF0.2166312528139682
aF-0.007948044117175979
aF-0.11660407005866347
aF-0.02867132118246074
aa(lp408
F-0.3854562594867611
aF0.14811143519470527
aF0.22132454817337713
aF-0.006041100296340751
aF-0.12284686967673991
aF-0.03060223181104904
aa(lp409
F-0.3837213007080202
aF0.14577463608354543
aF0.2282128172234441
aF-0.012690790536171281
aF-0.1253405758409436
aF-0.04350841186721799
aa(lp410
F-0.3827939506619474
aF0.14402808343657525
aF0.23302539248766446
aF-0.011329568580236149
aF-0.13231862564303237
aF-0.04694959843883262
aa(lp411
F-0.3798648663099265
aF0.13962578102169565
aF0.2431751517190157
aF-0.00429750030802678
aF-0.14173530211265672
aF-0.04463626590183756
aa(lp412
F-0.37761456077912064
aF0.13591901538053083
aF0.25124374083414946
aF-0.007656533993259496
aF-0.14703247889048898
aF-0.055462922686401406
aa(lp413
F-0.3761794037044714
aF0.13331783189774157
aF0.2566365735188031
aF-0.0007713739071393277
aF-0.15625458420371652
aF-0.05476237055756017
aa(lp414
F-0.3728759529884567
aF0.1278603759308321
aF0.26768971252614576
aF-0.004387143217646106
aF-0.16256637154387787
aF-0.06432011617229105
aa(lp415
F-0.3712832658454554
aF0.1250220310234239
aF0.2732995991823924
aF-0.005390059375984357
aF-0.16762196477172497
aF-0.07635107620652248
aa(lp416
F-0.3677895045427001
aF0.11914333326275106
aF0.28442509369414104
aF0.0023713760389856287
aF-0.177858094993411
aF-0.073854859444622
aa(lp417
F-0.36615148571301187
aF0.11620035865235127
aF0.2900354927542118
aF0.005674167753089376
aF-0.1858852513569111
aF-0.07783225438409191
aa(lp418
F-0.36300156180270254
aF0.11027897434715797
aF0.3010062178150178
aF0.004992221283183662
aF-0.1924541138922164
aF-0.0881093324011486
aa(lp419
F-0.36117965119229667
aF0.10726741158355493
aF0.3063700028268378
aF0.0011352596842664209
aF-0.1978312121942095
aF-0.09993288868719707
aa(lp420
F-0.3583545432679864
aF0.10209528063031693
aF0.3158450887818048
aF0.00632709218385008
aF-0.2057019327187989
aF-0.10323445903035111
aa(lp421
F-0.3564970947014796
aF0.09860011899759084
aF0.3221215059972887
aF0.004631300349980827
aF-0.2112538899301856
aF-0.1147660289000445
aa(lp422
F-0.35383672952961764
aF0.09339515449847716
aF0.331431778258122
aF0.012439778878918561
aF-0.22114249631249466
aF-0.11102145238690908
aasS'outputs'
p423
(lp424
(lp425
F0.0
aF0.0
aF0.0
aI0
aa(lp426
F0.0
aF0.0
aF0.0
aI0
aa(lp427
F0.0
aF0.0
aF0.0
aI0
aa(lp428
F0.0
aF0.0
aF0.0
aI0
aa(lp429
F0.0
aF-0.3
aF0.0
aI0
aa(lp430
F0.0
aF-0.3
aF0.0
aI0
aa(lp431
F0.0
aF-0.3
aF0.0
aI0
aa(lp432
F0.0
aF-0.3
aF0.0
aI0
aa(lp433
F0.0
aF-0.3
aF0.0
aI0
aa(lp434
F0.0
aF-0.3
aF0.0
aI0
aa(lp435
F0.0
aF-0.3
aF0.0
aI0
aa(lp436
F0.0
aF-0.3
aF-0.45
aI0
aa(lp437
F0.047274649143218994
aF-0.3
aF-0.45
aI0
aa(lp438
F0.09155282735824585
aF-0.3
aF-0.45
aI0
aa(lp439
F0.10718087911605835
aF-0.3
aF-0.45
aI0
aa(lp440
F0.10978683471679687
aF-0.3
aF-0.45
aI0
aa(lp441
F0.10978683471679687
aF-0.3
aF-0.45
aI0
aa(lp442
F0.10978683471679687
aF-0.3
aF-0.45
aI0
aa(lp443
F0.10457491636276245
aF-0.3
aF-0.45
aI0
aa(lp444
F0.042070441246032715
aF-0.3
aF-0.45
aI0
aa(lp445
F0.0264423930644989
aF-0.3
aF-0.45
aI0
aa(lp446
F0.03164660096168518
aF-0.3
aF-0.45
aI0
aa(lp447
F0.042070441246032715
aF-0.3
aF-0.45
aI0
aa(lp448
F0.021230474710464478
aF-0.3
aF-0.45
aI0
aa(lp449
F-0.0
aF-0.0
aF-0.45
aI0
aa(lp450
F-0.0
aF-0.0
aF-0.45
aI0
aa(lp451
F-0.0
aF-0.02978590428829193
aF-0.45
aI0
aa(lp452
F-0.0
aF-0.16977912783622742
aF-0.45
aI0
aa(lp453
F0.0
aF-0.3
aF-0.45
aI0
aa(lp454
F0.0
aF-0.3
aF-0.45
aI0
aa(lp455
F0.0
aF-0.3
aF-0.45
aI0
aa(lp456
F0.0
aF-0.3
aF-0.45
aI0
aa(lp457
F0.0
aF-0.3
aF-0.45
aI0
aa(lp458
F-0.0
aF-0.3
aF-0.45
aI0
aa(lp459
F0.04466868996620178
aF-0.3
aF-0.45
aI0
aa(lp460
F-0.0
aF-0.0
aF-0.45
aI0
aa(lp461
F-0.0
aF-0.0
aF-0.45
aI0
aa(lp462
F-0.0
aF-0.052578413486480714
aF-0.45
aI0
aa(lp463
F-0.0
aF-0.0
aF-0.45
aI0
aa(lp464
F-0.0
aF-0.0
aF-0.45
aI0
aa(lp465
F0.10457491636276245
aF-0.3
aF-0.45
aI0
aa(lp466
F0.10718087911605835
aF-0.3
aF-0.45
aI0
aa(lp467
F0.12801313877105713
aF-0.3
aF-0.45
aI0
aa(lp468
F0.12801313877105713
aF-0.3
aF-0.45
aI0
aa(lp469
F0.12801313877105713
aF-0.3
aF-0.45
aI0
aa(lp470
F0.12541488647460938
aF-0.3
aF-0.45
aI0
aa(lp471
F0.12801313877105713
aF-0.3
aF-0.45
aI0
aa(lp472
F0.24
aF-0.3
aF-0.45
aI0
aa(lp473
F0.24
aF-0.23488955497741698
aF-0.45
aI0
aa(lp474
F0.24
aF-0.23488955497741698
aF-0.45
aI0
aa(lp475
F0.0003982183523476124
aF-0.003735947515815496
aF-0.45
aI0
aa(lp476
F-0.0
aF-0.0
aF-0.45
aI0
aa(lp477
F0.0
aF-0.19257162809371947
aF-0.45
aI0
aa(lp478
F0.0
aF-0.3
aF-0.45
aI0
aa(lp479
F-0.0
aF-0.0
aF-0.45
aI0
aa(lp480
F-0.0
aF-0.0004881355329416692
aF-0.45
aI0
aa(lp481
F-0.0
aF-0.19257162809371947
aF-0.45
aI0
aa(lp482
F-0.0
aF-0.3
aF-0.45
aI0
aa(lp483
F0.0
aF-0.3
aF-0.45
aI0
aa(lp484
F0.0
aF-0.3
aF-0.45
aI0
aa(lp485
F0.0
aF-0.3
aF-0.45
aI0
aa(lp486
F-0.0
aF-0.3
aF-0.45
aI0
aa(lp487
F0.24
aF-0.10466869175434113
aF-0.45
aI0
aa(lp488
F0.24
aF-0.16326422095298768
aF-0.45
aI0
aa(lp489
F0.24
aF-0.22838430404663085
aF-0.45
aI0
aa(lp490
F0.24
aF-0.22838430404663085
aF-0.45
aI0
aa(lp491
F0.24
aF-0.22838430404663085
aF-0.45
aI0
aa(lp492
F0.24
aF-0.2153545081615448
aF-0.45
aI0
aa(lp493
F0.24
aF-0.09815379381179809
aF-0.45
aI0
aa(lp494
F0.24
aF-0.117688849568367
aF-0.45
aI0
aa(lp495
F0.17229131698608396
aF-0.3
aF-0.45
aI0
aa(lp496
F0.1853134059906006
aF-0.3
aF-0.45
aI0
aa(lp497
F0.23740945816040038
aF-0.3
aF-0.45
aI0
aa(lp498
F0.24
aF-0.3
aF-0.45
aI0
aa(lp499
F0.16187519073486328
aF-0.08839108049869537
aF-0.45
aI0
aa(lp500
F0.1853134059906006
aF-0.0
aF-0.45
aI0
aa(lp501
F0.24
aF0.3
aF-0.45
aI0
aa(lp502
F0.01601855456829071
aF0.3
aF-0.45
aI1
aa(lp503
F0.0
aF-0.0
aF-0.0
aI1
aa(lp504
F-0.0
aF-0.0
aF-0.0
aI1
aa(lp505
F0.0
aF-0.3
aF-0.0
aI1
aa(lp506
F0.0
aF-0.3
aF-0.0
aI1
aa(lp507
F0.0
aF-0.3
aF-0.0
aI1
aa(lp508
F0.0
aF-0.3
aF-0.0
aI1
aa(lp509
F-0.0
aF-0.3
aF-0.0
aI1
aa(lp510
F-0.0
aF-0.0
aF-0.0
aI1
aa(lp511
F-0.0
aF-0.0
aF-0.0
aI1
aa(lp512
F-0.0
aF-0.0
aF-0.0
aI1
aa(lp513
F0.047274649143218994
aF0.16327385902404784
aF-0.0
aI1
aa(lp514
F0.20615336894989014
aF0.3
aF-0.0
aI1
aa(lp515
F0.21396353244781494
aF0.3
aF-0.0
aI1
aa(lp516
F0.21396353244781494
aF0.3
aF-0.0
aI1
aa(lp517
F0.057690775394439696
aF0.06235076040029525
aF-0.0
aI1
aa(lp518
F0.24
aF0.2674544155597687
aF-0.0
aI1
aa(lp519
F0.24
aF0.2674544155597687
aF-0.2448963314294815
aI1
aa(lp520
F0.24
aF0.2674544155597687
aF-0.45
aI1
aa(lp521
F0.24
aF0.3
aF-0.45
aI1
aa(lp522
F0.20615336894989014
aF0.3
aF-0.45
aI1
aa(lp523
F0.19313127994537352
aF0.3
aF-0.2839712888002396
aI1
aa(lp524
F0.19052531719207763
aF0.3
aF-0.25955487191677096
aI1
aa(lp525
F0.17489727973937988
aF0.3
aF-0.15211685746908188
aI1
aa(lp526
F0.17489727973937988
aF0.3
aF-0.05932291969656944
aI1
aa(lp527
F0.19313127994537352
aF0.3
aF-0.02514861635863781
aI1
aa(lp528
F0.18010919094085692
aF0.3
aF-0.3523343324661255
aI1
aa(lp529
F0.0264423930644989
aF0.3
aF-0.45
aI1
aa(lp530
F-0.0
aF0.3
aF-0.45
aI1
aa(lp531
F-0.0
aF0.3
aF-0.45
aI1
aa(lp532
F0.013420305848121643
aF0.3
aF-0.45
aI1
aa(lp533
F0.008208386600017548
aF0.3
aF-0.45
aI1
aa(lp534
F-0.0
aF0.3
aF-0.45
aI1
aa(lp535
F-0.0
aF0.3
aF-0.45
aI1
aa(lp536
F-0.0
aF0.3
aF-0.45
aI1
aa(lp537
F-0.0
aF0.3
aF-0.45
aI1
aa(lp538
F0.0
aF0.3
aF-0.42071186006069183
aI1
aa(lp539
F0.0
aF0.22839394211769104
aF-0.42071186006069183
aI1
aa(lp540
F0.0
aF0.3
aF-0.42071186006069183
aI1
aa(lp541
F0.0
aF0.3
aF-0.4158257067203522
aI1
aa(lp542
F0.0
aF0.2446715533733368
aF-0.4158257067203522
aI1
aa(lp543
F0.0
aF0.1046783298254013
aF-0.3962954431772232
aI0
aa(lp544
F-0.0
aF-0.006993396766483783
aF-0.39140928983688356
aI0
aa(lp545
F0.0
aF-0.09163889586925507
aF-0.2839712888002396
aI0
aa(lp546
F0.0
aF-0.2446619153022766
aF-0.12770044058561325
aI0
aa(lp547
F0.0
aF-0.3
aF-0.0
aI0
aa(lp548
F0.0
aF-0.3
aF-0.0
aI0
aa(lp549
F-0.0
aF-0.0
aF-0.0
aI0
aa(lp550
F-0.0
aF-0.0
aF-0.0
aI0
aa(lp551
F-0.0
aF0.029795542359352112
aF-0.0
aI0
aa(lp552
F0.11499104261398314
aF0.3
aF-0.0
aI0
aa(lp553
F0.11239279747009277
aF0.3
aF-0.0
aI0
aa(lp554
F0.11239279747009277
aF0.3
aF-0.0
aI0
aa(lp555
F0.11499104261398314
aF0.3
aF-0.0
aI0
aa(lp556
F0.11499104261398314
aF0.3
aF-0.0
aI0
aa(lp557
F0.11499104261398314
aF0.3
aF-0.0
aI0
aa(lp558
F0.07592478275299072
aF0.25769171118736267
aF-0.0
aI0
aa(lp559
F-0.0
aF-0.0
aF-0.0
aI0
aa(lp560
F-0.0
aF-0.020013557374477384
aF-0.0
aI0
aa(lp561
F-0.0
aF-0.0493209645152092
aF-0.0
aI0
aa(lp562
F0.0
aF-0.16000678539276122
aF-0.0
aI0
aa(lp563
F0.0
aF-0.16977912783622742
aF-0.0
aI0
aa(lp564
F0.0
aF-0.16977912783622742
aF-0.0
aI0
aa(lp565
F0.0
aF-0.16977912783622742
aF-0.0
aI0
aa(lp566
F0.0
aF-0.16977912783622742
aF-0.0
aI0
aa(lp567
F0.0
aF-0.16326422095298768
aF-0.0
aI0
aa(lp568
F0.0
aF-0.16000678539276122
aF-0.0
aI0
aa(lp569
F0.0
aF-0.16652167439460755
aF-0.0
aI0
aa(lp570
F-0.0
aF-0.0
aF-0.0
aI0
aa(lp571
F-0.0
aF-0.0
aF-0.0
aI0
aa(lp572
F-0.0
aF-0.0
aF-0.0
aI0
aa(lp573
F-0.0
aF-0.0
aF-0.0
aI0
aa(lp574
F-0.0
aF-0.0
aF-0.0
aI0
aa(lp575
F-0.0
aF-0.0
aF-0.0
aI0
aa(lp576
F-0.0
aF-0.16977912783622742
aF-0.0
aI0
aa(lp577
F0.005602427423000335
aF-0.3
aF-0.0
aI0
aa(lp578
F0.018624515533447263
aF-0.3
aF-0.0
aI0
aa(lp579
F0.018624515533447263
aF-0.3
aF-0.0
aI0
aa(lp580
F0.018624515533447263
aF-0.3
aF-0.02514861635863781
aI0
aa(lp581
F0.039464482069015504
aF-0.3
aF-0.45
aI0
aa(lp582
F0.09937070846557616
aF-0.3
aF-0.45
aI0
aa(lp583
F0.12280892372131347
aF-0.3
aF-0.45
aI0
aa(lp584
F0.12280892372131347
aF-0.3
aF-0.45
aI0
aa(lp585
F0.005602427423000335
aF-0.3
aF-0.45
aI0
aa(lp586
F0.0
aF-0.3
aF-0.45
aI0
aa(lp587
F-0.0
aF-0.3
aF-0.45
aI0
aa(lp588
F0.0
aF-0.3
aF-0.45
aI0
aa(lp589
F0.0
aF-0.3
aF-0.45
aI0
aa(lp590
F0.008208386600017548
aF-0.1827992856502533
aF-0.45
aI0
aa(lp591
F-0.0
aF-0.0
aF-0.45
aI0
aa(lp592
F-0.0
aF-0.0
aF-0.45
aI0
aa(lp593
F0.0
aF-0.19581944346427918
aF-0.45
aI0
aa(lp594
F0.0
aF-0.3
aF-0.45
aI0
aa(lp595
F0.0
aF-0.3
aF-0.45
aI0
aa(lp596
F0.0
aF-0.3
aF-0.45
aI0
aa(lp597
F0.0
aF-0.290237295627594
aF-0.45
aI0
aa(lp598
F0.0
aF-0.3
aF-0.45
aI0
aa(lp599
F0.0
aF-0.3
aF-0.45
aI0
aa(lp600
F0.0
aF-0.3
aF-0.45
aI0
aa(lp601
F0.0
aF-0.3
aF-0.45
aI0
aa(lp602
F-0.0
aF-0.12094630300998688
aF-0.45
aI0
aa(lp603
F-0.0
aF-0.0
aF-0.45
aI0
aa(lp604
F-0.0
aF-0.0
aF-0.45
aI0
aa(lp605
F0.0
aF-0.3
aF-0.45
aI0
aa(lp606
F0.0
aF-0.3
aF-0.45
aI0
aa(lp607
F0.0
aF-0.3
aF-0.45
aI0
aa(lp608
F0.0
aF-0.2153545081615448
aF-0.45
aI0
aa(lp609
F-0.0
aF-0.0
aF-0.45
aI0
aa(lp610
F-0.0
aF-0.0
aF-0.45
aI0
aa(lp611
F-0.0
aF-0.08839108049869537
aF-0.45
aI0
aa(lp612
F-0.0
aF-0.09489634037017822
aF-0.45
aI0
aa(lp613
F0.14104292392730713
aF-0.3
aF-0.45
aI0
aa(lp614
F0.14104292392730713
aF-0.3
aF-0.45
aI0
aa(lp615
F0.19052531719207763
aF-0.3
aF-0.45
aI0
aa(lp616
F0.22959158420562742
aF-0.3
aF-0.45
aI0
aa(lp617
F0.1696930646896362
aF-0.3
aF-0.45
aI0
aa(lp618
F0.09155282735824585
aF-0.3
aF-0.45
aI0
aa(lp619
F0.18271515369415284
aF-0.3
aF-0.45
aI0
aa(lp620
F0.24
aF-0.18605673909187317
aF-0.45
aI0
aa(lp621
F0.24
aF-0.08187618255615234
aF-0.45
aI0
aa(lp622
F0.010814346671104431
aF-0.0851336270570755
aF-0.45
aI0
aa(lp623
F-0.0
aF-0.0
aF-0.45
aI0
aa(lp624
F-0.0
aF-0.0
aF-0.45
aI0
aa(lp625
F0.0
aF-0.15675897002220154
aF-0.45
aI0
aa(lp626
F0.0
aF-0.3
aF-0.45
aI0
aa(lp627
F-0.0
aF-0.0
aF-0.45
aI0
aa(lp628
F0.0
aF-0.3
aF-0.45
aI0
aa(lp629
F0.0
aF-0.3
aF-0.45
aI0
aa(lp630
F-0.0
aF-0.0
aF-0.45
aI0
aa(lp631
F-0.0
aF-0.0
aF-0.45
aI0
aa(lp632
F0.0003982183523476124
aF-0.3
aF-0.45
aI0
aa(lp633
F0.057690775394439696
aF-0.3
aF-0.45
aI0
aa(lp634
F0.06811461210250855
aF-0.3
aF-0.45
aI0
aa(lp635
F0.05248656749725342
aF-0.3
aF-0.45
aI0
aa(lp636
F0.09937070846557616
aF-0.3
aF-0.45
aI0
aa(lp637
F0.24
aF-0.13396646082401276
aF-0.45
aI0
aa(lp638
F0.24
aF-0.0
aF-0.45
aI0
aa(lp639
F0.24
aF-0.0
aF-0.45
aI0
aa(lp640
F0.24
aF-0.23163211941719053
aF-0.45
aI0
aa(lp641
F0.24
aF-0.2576820731163025
aF-0.45
aI0
aa(lp642
F0.24
aF-0.290237295627594
aF-0.45
aI0
aa(lp643
F0.24
aF-0.3
aF-0.45
aI0
aa(lp644
F0.24
aF-0.2967521846294403
aF-0.45
aI0
aa(lp645
F0.24
aF-0.010250846296548844
aF-0.45
aI0
aa(lp646
F0.24
aF0.1795514702796936
aF-0.45
aI0
aa(lp647
F0.24
aF0.07211346924304962
aF-0.45
aI1
aa(lp648
F-0.0
aF-0.0
aF-0.45
aI1
aa(lp649
F-0.0
aF-0.0
aF-0.0
aI1
aa(lp650
F-0.0
aF-0.0
aF-0.0
aI1
aa(lp651
F-0.0
aF-0.0
aF-0.0
aI1
aa(lp652
F-0.0
aF-0.0
aF-0.0
aI1
aa(lp653
F-0.0
aF-0.0
aF-0.0
aI1
aa(lp654
F-0.0
aF-0.0
aF-0.0
aI1
aa(lp655
F-0.0
aF-0.0
aF-0.0
aI1
aa(lp656
F-0.0
aF-0.0
aF-0.0
aI1
aa(lp657
F-0.0
aF-0.0
aF-0.0
aI1
aa(lp658
F-0.0
aF-0.0
aF-0.0
aI1
aa(lp659
F-0.0
aF-0.0
aF-0.0
aI1
aa(lp660
F-0.0
aF-0.0
aF-0.0
aI1
aa(lp661
F-0.0
aF-0.0
aF-0.0
aI1
aa(lp662
F-0.0
aF-0.0
aF-0.0
aI1
aa(lp663
F0.15666326522827148
aF0.3
aF-0.0
aI1
aa(lp664
F0.18271515369415284
aF0.3
aF-0.0
aI1
aa(lp665
F0.22178142070770263
aF0.3
aF-0.0
aI1
aa(lp666
F0.24
aF0.264206600189209
aF-0.1911773443222046
aI1
aa(lp667
F0.24
aF0.22839394211769104
aF-0.3376902759075165
aI1
aa(lp668
F0.24
aF0.23489919304847717
aF-0.3523343324661255
aI1
aa(lp669
F0.22959158420562742
aF0.3
aF-0.3523343324661255
aI1
aa(lp670
F0.18271515369415284
aF0.3
aF-0.3523343324661255
aI1
aa(lp671
F0.049880608320236205
aF0.3
aF-0.3425764560699463
aI1
aa(lp672
F0.04466868996620178
aF0.3
aF-0.45
aI1
aa(lp673
F0.057690775394439696
aF0.3
aF-0.45
aI1
aa(lp674
F-0.0
aF0.3
aF-0.4158257067203522
aI1
aa(lp675
F-0.0
aF0.3
aF-0.3523343324661255
aI1
aa(lp676
F-0.0
aF0.3
aF-0.3523343324661255
aI1
aa(lp677
F-0.0
aF0.2772267758846283
aF-0.3718645960092545
aI1
aa(lp678
F-0.0
aF0.23815664649009705
aF-0.40116716623306276
aI1
aa(lp679
F-0.0
aF0.23815664649009705
aF-0.3572205126285553
aI1
aa(lp680
F-0.0
aF0.23815664649009705
aF-0.31816003918647767
aI1
aa(lp681
F0.04466868996620178
aF-0.0
aF-0.3376902759075165
aI1
aa(lp682
F0.1696930646896362
aF0.03631044030189514
aF-0.4304697632789612
aI1
aa(lp683
F0.06550865650177001
aF0.04281570017337799
aF-0.4304697632789612
aI1
aa(lp684
F-0.0
aF-0.0
aF-0.3425764560699463
aI1
aa(lp685
F-0.0
aF-0.0
aF-0.3376902759075165
aI1
aa(lp686
F0.047274649143218994
aF0.16327385902404784
aF-0.3376902759075165
aI1
aa(lp687
F0.16448113918304444
aF0.24791936874389647
aF-0.3376902759075165
aI1
aa(lp688
F0.20875933170318603
aF0.3
aF-0.32791794240474703
aI1
aa(lp689
F0.17229131698608396
aF0.3
aF-0.22047992795705795
aI1
aa(lp690
F0.1853134059906006
aF0.3
aF-0.22047992795705795
aI1
aa(lp691
F0.23219754695892333
aF0.3
aF-0.22047992795705795
aI1
aa(lp692
F0.24
aF0.3
aF-0.21559374779462814
aI1
aa(lp693
F0.24
aF0.3
aF-0.21559374779462814
aI1
aa(lp694
F0.008208386600017548
aF0.2121163308620453
aF-0.21559374779462814
aI1
aa(lp695
F-0.0
aF0.12095593214035033
aF-0.21559374779462814
aI1
aa(lp696
F-0.0
aF-0.0
aF-0.22047992795705795
aI0
aa(lp697
F-0.0
aF-0.0
aF-0.22047992795705795
aI0
aa(lp698
F-0.0
aF-0.0
aF-0.0
aI0
aa(lp699
F-0.0
aF-0.0
aF-0.0
aI0
aa(lp700
F-0.0
aF-0.0
aF-0.0
aI0
aa(lp701
F-0.0
aF-0.0
aF-0.0
aI0
aa(lp702
F-0.0
aF-0.0
aF-0.0
aI0
aa(lp703
F-0.0
aF-0.0
aF-0.0
aI0
aa(lp704
F-0.0
aF-0.0
aF-0.0
aI0
aa(lp705
F-0.0
aF-0.0
aF-0.0
aI0
aa(lp706
F-0.0
aF-0.15675897002220154
aF-0.0
aI0
aa(lp707
F-0.0
aF-0.13070900738239288
aF-0.0
aI0
aa(lp708
F-0.0
aF-0.0
aF-0.0
aI0
aa(lp709
F-0.0
aF-0.0
aF-0.0
aI0
aa(lp710
F-0.0
aF-0.0
aF-0.0
aI0
aa(lp711
F-0.0
aF-0.3
aF-0.0
aI0
aa(lp712
F-0.0
aF-0.3
aF-0.0
aI0
aa(lp713
F-0.0
aF-0.3
aF-0.0
aI0
aa(lp714
F-0.0
aF-0.3
aF-0.0
aI0
aa(lp715
F0.04466868996620178
aF-0.3
aF-0.0
aI0
aa(lp716
F0.11499104261398314
aF-0.3
aF-0.0
aI0
aa(lp717
F0.17489727973937988
aF-0.3
aF-0.20583585798740386
aI0
aa(lp718
F0.24
aF-0.3
aF-0.45
aI0
aa(lp719
F0.24
aF-0.2967521846294403
aF-0.45
aI0
aa(lp720
F0.24
aF-0.2967521846294403
aF-0.45
aI0
aa(lp721
F0.24
aF-0.2967521846294403
aF-0.45
aI0
aa(lp722
F0.19052531719207763
aF-0.3
aF-0.45
aI0
aa(lp723
F0.20875933170318603
aF-0.3
aF-0.45
aI0
aa(lp724
F0.15406501293182373
aF-0.0
aF-0.45
aI0
aa(lp725
F-0.0
aF-0.0
aF-0.45
aI0
aa(lp726
F-0.0
aF-0.0
aF-0.45
aI0
aa(lp727
F-0.0
aF-0.0
aF-0.45
aI0
aa(lp728
F-0.0
aF-0.0
aF-0.45
aI0
aa(lp729
F0.0
aF-0.0004881355329416692
aF-0.45
aI0
aa(lp730
F0.0
aF-0.0851336270570755
aF-0.45
aI0
aa(lp731
F0.0
aF-0.07861872911453247
aF-0.45
aI0
aa(lp732
F0.0
aF-0.07861872911453247
aF-0.45
aI0
aa(lp733
F0.0
aF-0.07861872911453247
aF-0.45
aI0
aa(lp734
F0.0
aF-0.0851336270570755
aF-0.45
aI0
aa(lp735
F0.0
aF-0.11443139612674713
aF-0.45
aI0
aa(lp736
F0.0
aF-0.19907689690589905
aF-0.45
aI0
aa(lp737
F0.0
aF-0.2446619153022766
aF-0.45
aI0
aa(lp738
F0.0
aF-0.2544246196746826
aF-0.45
aI0
aa(lp739
F0.0
aF-0.2544246196746826
aF-0.45
aI0
aa(lp740
F0.0
aF-0.2544246196746826
aF-0.45
aI0
aa(lp741
F0.0
aF-0.2544246196746826
aF-0.45
aI0
aa(lp742
F0.0
aF-0.2544246196746826
aF-0.45
aI0
aa(lp743
F0.0
aF-0.2544246196746826
aF-0.45
aI0
aa(lp744
F0.0
aF-0.17954183220863343
aF-0.45
aI0
aa(lp745
F0.0
aF-0.0721038356423378
aF-0.45
aI0
aa(lp746
F0.0
aF-0.0688560202717781
aF-0.45
aI0
aa(lp747
F0.0
aF-0.12420374751091003
aF-0.45
aI0
aa(lp748
F0.0
aF-0.15675897002220154
aF-0.45
aI0
aa(lp749
F0.0
aF-0.1730365812778473
aF-0.45
aI0
aa(lp750
F0.0
aF-0.1730365812778473
aF-0.45
aI0
aa(lp751
F0.0
aF-0.19907689690589905
aF-0.45
aI0
aa(lp752
F0.0
aF-0.19907689690589905
aF-0.45
aI0
aa(lp753
F0.0
aF-0.19907689690589905
aF-0.45
aI0
aa(lp754
F0.0
aF-0.23814700841903685
aF-0.45
aI0
aa(lp755
F0.0
aF-0.2446619153022766
aF-0.45
aI0
aa(lp756
F0.0
aF-0.2446619153022766
aF-0.45
aI0
aa(lp757
F0.0
aF-0.2446619153022766
aF-0.45
aI0
aa(lp758
F0.0
aF-0.2446619153022766
aF-0.45
aI0
aa(lp759
F0.0
aF-0.2446619153022766
aF-0.45
aI0
aa(lp760
F0.0
aF-0.2446619153022766
aF-0.45
aI0
aa(lp761
F0.0
aF-0.2446619153022766
aF-0.45
aI0
aa(lp762
F0.0
aF-0.2446619153022766
aF-0.45
aI0
aa(lp763
F0.0
aF-0.2446619153022766
aF-0.45
aI0
aa(lp764
F0.0
aF-0.2967521846294403
aF-0.45
aI0
aa(lp765
F0.0
aF-0.3
aF-0.45
aI0
aa(lp766
F0.15406501293182373
aF0.06886565834283828
aF-0.45
aI0
aa(lp767
F0.24
aF0.264206600189209
aF-0.45
aI0
aa(lp768
F0.24
aF-0.062341122329235076
aF-0.45
aI0
aa(lp769
F0.11239279747009277
aF-0.3
aF-0.45
aI0
aa(lp770
F0.039464482069015504
aF-0.3
aF-0.45
aI0
aa(lp771
F0.039464482069015504
aF-0.3
aF-0.45
aI0
aa(lp772
F0.042070441246032715
aF-0.3
aF-0.45
aI0
aa(lp773
F0.16708710193634033
aF-0.3
aF-0.45
aI0
aa(lp774
F0.24
aF-0.1404813587665558
aF-0.45
aI0
aa(lp775
F0.24
aF-0.12745156288146972
aF-0.45
aI0
aa(lp776
F0.24
aF-0.15675897002220154
aF-0.45
aI0
aa(lp777
F0.24
aF-0.17954183220863343
aF-0.45
aI0
aa(lp778
F0.24
aF-0.13070900738239288
aF-0.45
aI0
aa(lp779
F0.24
aF-0.020013557374477384
aF-0.45
aI0
aa(lp780
F0.24
aF0.08188582062721252
aF-0.45
aI0
aa(lp781
F0.24
aF0.10142087638378143
aF-0.45
aI0
aa(lp782
F0.02383643388748169
aF0.00374558474868536
aF-0.45
aI1
aa(lp783
F0.005602427423000335
aF-0.0
aF-0.2302522748708725
aI1
aa(lp784
F0.02383643388748169
aF-0.16000678539276122
aF-0.0
aI1
aa(lp785
F0.04466868996620178
aF-0.3
aF-0.0
aI1
aa(lp786
F0.005602427423000335
aF-0.3
aF-0.0
aI1
aa(lp787
F0.010814346671104431
aF-0.05582622438669205
aF-0.0
aI1
aa(lp788
F-0.0
aF-0.0
aF-0.0
aI1
aa(lp789
F-0.0
aF-0.0
aF-0.0
aI1
aa(lp790
F0.008208386600017548
aF0.0753709226846695
aF-0.0
aI1
aa(lp791
F0.12801313877105713
aF0.3
aF-0.0
aI1
aa(lp792
F0.12541488647460938
aF0.3
aF-0.0
aI1
aa(lp793
F0.22438736915588378
aF0.3
aF-0.0
aI1
aa(lp794
F0.24
aF0.3
aF-0.0
aI1
aa(lp795
F0.24
aF0.3
aF-0.0
aI1
aa(lp796
F0.24
aF0.3
aF-0.0
aI1
aa(lp797
F0.24
aF0.3
aF-0.0
aI1
aa(lp798
F0.21136528015136719
aF0.3
aF-0.0
aI1
aa(lp799
F0.057690775394439696
aF0.3
aF-0.0
aI1
aa(lp800
F-0.0
aF0.3
aF-0.0
aI1
aa(lp801
F0.01601855456829071
aF0.3
aF-0.32791794240474703
aI1
aa(lp802
F0.08374266386032105
aF0.3
aF-0.45
aI1
aa(lp803
F0.08374266386032105
aF0.3
aF-0.3572205126285553
aI1
aa(lp804
F0.08374266386032105
aF0.3
aF-0.26931274831295016
aI1
aa(lp805
F0.047274649143218994
aF0.3
aF-0.3425764560699463
aI1
aa(lp806
F-0.0
aF0.3
aF-0.3572205126285553
aI1
aa(lp807
F0.0
aF0.3
aF-0.3962954431772232
aI1
aa(lp808
F0.0
aF0.23164175748825072
aF-0.40605334639549256
aI1
aa(lp809
F-0.0
aF0.24141409993171692
aF-0.45
aI1
aa(lp810
F-0.0
aF0.264206600189209
aF-0.45
aI1
aa(lp811
F0.005602427423000335
aF0.2674544155597687
aF-0.45
aI1
aa(lp812
F0.01601855456829071
aF0.1763036549091339
aF-0.45
aI1
aa(lp813
F0.005602427423000335
aF0.12095593214035033
aF-0.45
aI1
aa(lp814
F-0.0
aF0.05258805155754089
aF-0.45
aI1
aa(lp815
F-0.0
aF0.00374558474868536
aF-0.45
aI1
aa(lp816
F0.05248656749725342
aF0.07211346924304962
aF-0.45
aI1
aa(lp817
F0.19313127994537352
aF0.3
aF-0.4304697632789612
aI1
aa(lp818
F0.20615336894989014
aF0.3
aF-0.32791794240474703
aI1
aa(lp819
F0.22438736915588378
aF0.3
aF-0.27419892847537997
aI1
aa(lp820
F0.20875933170318603
aF0.3
aF-0.2351384550333023
aI1
aa(lp821
F0.20875933170318603
aF0.3
aF-0.21559374779462814
aI1
aa(lp822
F0.005602427423000335
aF0.10142087638378143
aF-0.0983978569507599
aI0
aa(lp823
F-0.0
aF-0.0
aF-0.0
aI0
aa(lp824
F-0.0
aF-0.0
aF-0.0
aI0
aa(lp825
F-0.0
aF-0.0
aF-0.0
aI0
aa(lp826
F-0.0
aF-0.0
aF-0.0
aI0
aa(lp827
F-0.0
aF-0.0
aF-0.0
aI0
aa(lp828
F-0.0
aF-0.0
aF-0.0
aI0
aa(lp829
F-0.0
aF-0.0
aF-0.0
aI0
aa(lp830
F-0.0
aF-0.0
aF-0.0
aI0
aa(lp831
F-0.0
aF-0.0
aF-0.0
aI0
aa(lp832
F-0.0
aF-0.0
aF-0.0
aI0
aa(lp833
F-0.0
aF-0.0
aF-0.0
aI0
aa(lp834
F-0.0
aF-0.0
aF-0.0
aI0
aa(lp835
F-0.0
aF-0.0
aF-0.0
aI0
aa(lp836
F-0.0
aF-0.0
aF-0.0
aI0
aa(lp837
F-0.0
aF-0.0
aF-0.0
aI0
aa(lp838
F-0.0
aF-0.0
aF-0.0
aI0
aa(lp839
F-0.0
aF-0.0
aF-0.0
aI0
aa(lp840
F-0.0
aF-0.0
aF-0.0
aI0
aa(lp841
F-0.0
aF-0.0
aF-0.0
aI0
aa(lp842
F-0.0
aF-0.0
aF-0.0
aI0
aa(lp843
F-0.0
aF-0.0
aF-0.0
aI0
aa(lp844
F-0.0
aF-0.0
aF-0.0
aI0
aas.